c__builtin__
set
p1
((lp2
S''
aS'Vad \xc3\xa4r det i soppan?'
p3
aS'N\xc3\xa5gon har skrivit brev till mig!'
p4
aS'Vad ska ni g\xc3\xb6ra n\xc3\xa4r ni har seglat?'
p5
aS'Kan jag f\xc3\xa5 prova den h\xc3\xa4r tr\xc3\xb6jan?'
p6
aS'Hon st\xc3\xa5r i k\xc3\xb6'
p7
aS'Ska jag ta med din kopp till k\xc3\xb6ket?'
p8
aS'Den *amerikanska* presidenten bor h\xc3\xa4r'
p9
aS'Finns det tillr\xc3\xa4ckligt med gaffler \xc3\xa5t alla?'
p10
aS'Jag dricker te till frukost'
p11
aS'I s\xc3\xa5 fall, jag ska ta det. I varje fall jag ska g\xc3\xa5'
p12
aS'Vet du hur m\xc3\xa5nga personer som kommer?'
p13
aS'Det ligger norr om Kina'
p14
aS'Jag studerade svenska f\xc3\xb6r fem \xc3\xa5r sedan'
p15
aS'Vill du ha n\xc3\xa5got att dricka?'
p16
aS'Visste du att jag talar arabiska? G\xc3\xb6r du? Det visste jag inte'
p17
aS'Det d\xc3\xa4r otrevliga blir trevlig'
p18
aS'Vill du g\xc3\xa5 ner i vikt?'
p19
aS'Vill du dansa med mig?'
p20
aS'Steves farmor tycker att Steve ska sluta r\xc3\xb6ka'
p21
aS'De f\xc3\xb6rlorade fler matcher \xc3\xa4n det bl\xc3\xa5a laget'
p22
aS'Jag vill g\xc3\xa4rna ha lite kaffe'
p23
aS'Jag spelar piano'
p24
aS'Sitta i kn\xc3\xa4et'
p25
aS'Vad duktig du var!'
p26
aS'Hon \xc3\xa4r tr\xc3\xb6tt p\xc3\xa5 dig. Hon l\xc3\xa4ngtar efter mig'
p27
aS'Vart ska mamma g\xc3\xa5? Vart gick mamma?'
p28
aS'T\xc3\xa5get g\xc3\xa5r till Paris'
p29
aS'Vilket lag spelar du i?'
p30
aS'Jag skojar!'
p31
aS'Kan du k\xc3\xb6pa det till mig?'
p32
aS'Jag ska dammsuga golvet n\xc3\xa4r jag har kommit hem'
p33
aS'Jag har redan \xc3\xa4tit lunch idag'
p34
aS'Fungerar den h\xc3\xa4r datorn? Nej, det g\xc3\xb6r den inte'
p35
aS'Jag h\xc3\xb6rde fel'
p36
aS'V\xc3\xa4rf\xc3\xb6r ringer hon inte?'
p37
aS'Pianon och gitarrer \xc3\xa4r olika sorters instrument'
p38
aS'Jag studerade svenska under fem \xc3\xa5r'
p39
aS'Har de sagt vilka som vann matchen?'
p40
aS'Den v\xc3\xa4nstra citronen v\xc3\xa4ger lika mycket som den h\xc3\xb6gra'
p41
aS'F\xc3\xb6rel\xc3\xa4sning, klass'
p42
aS'Klart som korvspad, lugn som en filbunke, brun som en pepparkaka'
p43
aS'Jag har ingen flickv\xc3\xa4n'
p44
aS'Vad tog du med?'
p45
aS'Var vill du att jag ska sitta?'
p46
aS'Jag ska g\xc3\xb6ra det, p\xc3\xa5 n\xc3\xa5t s\xc3\xa4tt'
p47
aS'Tjejkompis'
p48
aS'En dag kommer kag att arbeta p\xc3\xa5 en bank'
p49
aS'Vad heter det h\xc3\xa4r p\xc3\xa5 svenska?'
p50
aS'En dag ska jag dansa lika bra som hon'
p51
aS'Norra, \xc3\xb6stra, v\xc3\xa4stra, s\xc3\xb6dra'
p52
aS'S\xc3\xa4ngen \xc3\xa4r inte b\xc3\xa4ddad'
p53
aS'Jag ska bli l\xc3\xa4rare. Slut och punkt!'
p54
aS'Han kl\xc3\xa4ttrar upp p\xc3\xa5 segelb\xc3\xa5ten. Hon kl\xc3\xa4ttrar i ett tr\xc3\xa4d'
p55
aS'Jag \xc3\xa5t upp allt!'
p56
aS'Vi m\xc3\xa5ste g\xc3\xa5 dit!'
p57
aS'Faster, farbror, morbro, moster, barnbarn, kusiner, bonuspappa, gudmor, morf\xc3\xb6r\xc3\xa4ldrar, syskonbarn'
p58
aS'Hall\xc3\xa5, det \xc3\xa4r Alex! Kan jag f\xc3\xa5 tala med Louise?'
p59
aS'Jag letar efter min rock. Har du sett den?'
p60
aS'Vilken sorts fest ska det vara?'
p61
aS'Jag skulle inte g\xc3\xb6ra det f\xc3\xb6r allt sm\xc3\xb6r i Sm\xc3\xa5land!'
p62
aS'Flickan \xc3\xb6var piano'
p63
aS'Vi tr\xc3\xa4ffades p\xc3\xa5 kaf\xc3\xa9et d\xc3\xa4r jag arbetade'
p64
aS'Jag kommer den tjugoandra oktober. Kom uppf\xc3\xb6r!'
p65
aS'F\xc3\xb6rsta, andra, tredje, fj\xc3\xa4rde'
p66
aS'Hon har g\xc3\xa5tt vilse!'
p67
aS'De flesta har r\xc3\xb6stat p\xc3\xa5 honom'
p68
aS'Gratulerar till bebisen!'
p69
aS'Det finns mycket plats i den'
p70
aS'Honom, henne, mig, dig, dem'
p71
aS'Finns det tillr\xc3\xa4ckligt med plats?'
p72
aS'Efter dansen \xc3\xa4r Renate mycket hungrig'
p73
aS'Det \xc3\xa4r en stor del av mitt liv'
p74
aS'F\xc3\xa5r jag komma in?'
p75
aS'Hunden f\xc3\xa5r inte g\xc3\xa5 h\xc3\xa4r'
p76
aS'Vad arbetar du med? Vad arbetar du p\xc3\xa5?'
p77
aS'Det sitter n\xc3\xa5gra katter i f\xc3\xb6nstret'
p78
aS'Jag s\xc3\xa4tter i ett kort i bankomaten'
p79
aS'Ta med, h\xc3\xa4mtar... F\xc3\xa5, m\xc3\xa5ste, kan...'
p80
aS'Jag g\xc3\xa4rna... (g\xc3\xb6ra n\xc3\xa5got)'
p81
aS'De kommer at kunna flyga om tv\xc3\xa5 veckor'
p82
aS'Varf\xc3\xb6r \xc3\xa4r hon ledsen? D\xc3\xa4rf\xc3\xb6r att hon *inte kan* hitta sin hund'
p83
aS'Tyv\xc3\xa4rr \xc3\xa4r jag upptagen'
p84
aS'Jag gillar cykling och simning, jag tycker om att simma'
p85
aS'Vad kan jag hj\xc3\xa4lpa till med?'
p86
aS'Han tar ut en penna ur sin portf\xc3\xb6lj'
p87
aS'V\xc3\xa4l: du hoppas att lyssnaren h\xc3\xa5ller med om vad du s\xc3\xa4ger'
p88
aS'Hej! Jag \xc3\xa4r p\xc3\xa5 idrottsplatsen! Det ligger i centrum'
p89
aS'Smaken \xc3\xa4r som baken -- delad.'
p90
aS'V\xc3\xa4rldens otur hade de!'
p91
aS'Du borde tv\xc3\xa4tta ansiktet'
p92
aS'Ta den h\xc3\xa4r medicin en g\xc3\xa5ng om dagen.'
p93
aS'Nu \xc3\xa4r det dags f\xc3\xb6r plural'
p94
aS'Dollar \xc3\xa4r en sorts valuta'
p95
aS'Klockan \xc3\xa4r mycket!'
p96
aS'Jag vill ha en tredjedel av t\xc3\xa5rtan'
p97
aS'Det \xc3\xa4r v\xc3\xa4l det som \xc3\xa4r skillnaden'
p98
aS'Vill du ha mj\xc3\xb6lk till?'
p99
aS'Om du kan r\xc3\xa4kna objekten \xc3\xa4nv\xc3\xa4nder du m\xc3\xa5nga, annars anv\xc3\xa4nder du mycket'
p100
aS'Vart ska du?'
p101
aS'Jag l\xc3\xa4ser av termometern'
p102
aS'Jag tror inte att det finns n\xc3\xa5gon h\xc3\xa4r'
p103
aS'Vad dricker du f\xc3\xb6r vin?'
p104
aS'Sju sj\xc3\xb6sjuka sj\xc3\xb6m\xc3\xa4n p\xc3\xa5 skeppet shanghai skj\xc3\xb6ljde sina sju skitiga skjortor i sj\xc3\xb6n'
p105
aS'Ju: du antar att lyssnaren h\xc3\xa5ller med om vad du s\xc3\xa4ger'
p106
aS'Kan du s\xc3\xa4aga det igen?'
p107
aS'P\xc3\xa5 rea!'
p108
aS'Jag sa att jag tycker om din skjorta'
p109
aS'Levande ljus'
p110
aS'Ska vi g\xc3\xa5 till parken? \xc3\x84r du klar att \xc3\xa5ka?'
p111
aS'Jag let mot flickan'
p112
aS'F\xc3\xb6rl\xc3\xa5t! Ingen fara, det g\xc3\xb6r inget'
p113
aS'Inte s\xc3\xa5 mycket'
p114
aS'Det finns m\xc3\xa5nga fiskar i havet'
p115
aS'Den normala ordf\xc3\xb6ljden i en svensk p\xc3\xa5st\xc3\xa5endesats \xc3\xa4r SPORT: subjekt predikat objekt rum tid'
p116
aS'80% av substantiven \xc3\xa4r en-ord'
p117
aS'L\xc3\xa4gg i dem!'
p118
aS'Det kan man inte veta'
p119
aS'En karta \xc3\xb6ver stan'
p120
aS'Hon har k\xc3\xb6pt choklad till oss!'
p121
aS'Sylten och marmeladen \xc3\xa4r n\xc3\xa4stan samma sak'
p122
aS'Hon sover under filmen'
p123
aS'F\xc3\xb6rst... sedan... till sist...'
p124
aS'Kan du spela n\xc3\xa5got?'
p125
aS'Hon var tidigt till kursen'
p126
aS'N\xc3\xa5gonting mer?'
p127
aS'Tack! Ingen orsak!'
p128
aS'Ha det bra!'
p129
aS'Vad \xc3\xa4r klockan exact nu?'
p130
aS'Jag \xc3\xa4r r\xc3\xa4dd f\xc3\xb6r hajar'
p131
aS'V\xc3\xa4lkomna hem till oss!'
p132
aS'Letar du efter n\xc3\xa5got?'
p133
aS'St\xc3\xa4ll dig p\xc3\xa5 v\xc3\xa5gen'
p134
aS'Jag ska ringa dig om tv\xc3\xa5 timmar'
p135
aS'Han f\xc3\xb6ddes 1980. Han gifte sig den h\xc3\xa4r veckan'
p136
aS'Deras spr\xc3\xa5k \xc3\xa4r vackert'
p137
aS'Vad t\xc3\xa4nker du p\xc3\xa5? Jag t\xc3\xa4nker p\xc3\xa5 dig'
p138
aS'\xc3\x84t inte det h\xc3\xa4r! \xc3\x84t inte h\xc3\xa4r!'
p139
aS'Det finns inte tillr\xc3\xa4ckligt med datorer \xc3\xa5t barnen'
p140
aS'Jag tar helt avst\xc3\xa5nd fr\xc3\xa5n p\xc3\xa5st\xc3\xa5endet, jag inst\xc3\xa4mmer helt i p\xc3\xa5st\xc3\xa5endet'
p141
aS'\xc3\x84ven om det gula laget spelar mycket bra, kommer det bl\xc3\xa5a laget antagligen att vinna'
p142
aS'Den h\xc3\xa4r cyckeln \xc3\xa4r min'
p143
aS'De hyr en bil, och de l\xc3\xa4mnar det tillbaka senare'
p144
aS'D\xc3\xa5 var jag elev... tidigare var jag...'
p145
aS'Han rider vid havet, och hon har skrivit i sn\xc3\xb6n. Jag cycklar i regnet'
p146
aS'Var f\xc3\xb6rsiktig!'
p147
aS'Jag tar hand om dig'
p148
aS'Om det inte regnar, jag ska springer'
p149
aS'Jag f\xc3\xb6rst\xc3\xa5r bara lite av han s\xc3\xa4ger'
p150
aS'P\xc3\xa5 vilket s\xc3\xa4tt liknar du hon eller han?'
p151
aS'Det finns en bredvid banken p\xc3\xa5 n\xc3\xa4sta gata'
p152
aS'Det kostar mycket pengar!'
p153
aS'Det h\xc3\xa4r (ok\xc3\xa4nda ord)'
p154
aS'Killkompis'
p155
aS'K\xc3\xa4nner ni varandra?'
p156
aS'Den uppt\xc3\xa4cktes i Egypten av en fransk soldat'
p157
aS'Kan du ta ett foto av oss?'
p158
aS'Har du n\xc3\xa5gonsin varit i Norra Italien? Jag vill \xc3\xa5ka dit en dag'
p159
aS'Det f\xc3\xa5r vi hoppas!'
p160
aS'Du \xc3\xa4r fr\xc3\xa5n Stockholm, eller hur?'
p161
aS'Vid tv\xc3\xa5tiden blir hon hungrig'
p162
aS'Den h\xc3\xa4r statyn gjordes i forntida Rom'
p163
aS'Det st\xc3\xa5r m\xc3\xa5nga t\xc3\xa4lt i parken'
p164
aS'Kan jag... ? Ja, det kan du'
p165
aS'Jag \xc3\xa5ker mot \xc3\x96st!'
p166
aS'Vad \xc3\xa4r det f\xc3\xb6r v\xc3\xa4der? Det \xc3\xa4r molnigt, men det ska bli varmt idag'
p167
aS'Sex laxar i en laxask'
p168
aS'Jag ramlade av cyckeln!'
p169
aS'Om du ovar kommer du att kunna spela bra'
p170
aS'F\xc3\xb6r f\xc3\xb6rsta g\xc3\xa5nger'
p171
aS'De flesta ord f\xc3\xb6r m\xc3\xa4nniskor och djur \xc3\xa4r en-ord'
p172
aS'Jag \xc3\xa4r i bergen! Jag ska ringa dig senare'
p173
aS'Mannen s\xc3\xa4tter in pizzan i ugnen'
p174
aS'Hon vill att du ska ringa henne klockan fyra'
p175
aS'Jag har inte tr\xc3\xa4ffat n\xc3\xa5gon av dem'
p176
aS'Tr\xc3\xa4den \xc3\xa4r mycket h\xc3\xb6ga'
p177
aS'N\xc3\xa4r blir det klart? Snart...'
p178
aS'Stilla havet, Norra ishavet, Indiska oceanen, Atlanten'
p179
aS'Glasset \xc3\xa4r fullt av mj\xc3\xb6lk'
p180
aS'Jag ska bo hos nagra v\xc3\xa4nner i Stockholm'
p181
aS'Det kostar minst tio dollar'
p182
aS'Den \xc3\xa4ldsta flickan l\xc3\xa4ser boken f\xc3\xb6r de yngre flickorna'
p183
aS'Kan du b\xc3\xa4ra min portf\xc3\xb6lj av mig?'
p184
aS'Jag undervisar i musik'
p185
aS'Oj d\xc3\xa5!'
p186
aS'Hur l\xc3\xa4nge ska musikgruppen spela? I tv\xc3\xa5 timmar'
p187
aS'Jag hoppas att jag f\xc3\xa5r en flicka'
p188
aS'Tror du att det kommer att regna? Ja, jag tror att det kommer att regna'
p189
aS'Skoj! Vad kul!'
p190
aS'Meditation \xc3\xa4r j\xc3\xa4ttebra f\xc3\xb6r mentala h\xc3\xa4lsan'
p191
aS'\xc3\xa5 \xc3\xa4 \xc3\xb6'
p192
aS'Det \xc3\xa4r soligt, molnigt... Det regnar, sn\xc3\xb6ar... Det \xc3\xa4r kallt, varmt'
p193
aS'En av de h\xc3\xa4r hundarna har en tr\xc3\xb6ja'
p194
aS'Om du v\xc3\xa4ntar, en dag kommer bananerna att vara mogna'
p195
aS'Jag f\xc3\xb6ddes f\xc3\xb6r 15 \xc3\xa5r sedan i Sydamerika'
p196
aS'Jag l\xc3\xa4ste klart en bok'
p197
aS'N\xc3\xa4r togs det h\xc3\xa4r fotot?'
p198
aS'Att k\xc3\xb6pa grisen i sacken'
p199
aS'Jag sprang i m\xc3\xa5ndags i f\xc3\xb6rra veckan'
p200
aS'Nu \xc3\xa5ker vi!'
p201
aS'Du m\xc3\xa5ste ha p\xc3\xa5 dig kappan'
p202
aS'Det finns nio miljoner personer i Sverige'
p203
aS'Ska jag ta med n\xc3\xa5got?'
p204
aS'Vems segelb\xc3\xa5t \xc3\xa4r det h\xc3\xa4r?'
p205
aS'Det kommer antagligen att sn\xc3\xb6ar ikv\xc3\xa4ll'
p206
aS'Man ska inte reparera en cykel s\xc3\xa5 d\xc3\xa4r'
p207
aS'Har du provat det?'
p208
aS'Var v\xc3\xa4xer de h\xc3\xa4r v\xc3\xa4xterna?'
p209
aS'Svenskan har tv\xc3\xa5 genus: en-ord (utrum) och ett-ord (neutrum)'
p210
aS'Jag brukar tycka om att \xc3\xa4ta \xc3\xa4gg p\xc3\xa5 p\xc3\xa5sk'
p211
aS'T\xc3\xa5rtan bakades p\xc3\xa5 morgonen'
p212
aS'De flesta ord som slutar p\xc3\xa5 -a, -ing och -ion \xc3\xa4r en-ord'
p213
aS'Det \xc3\xa4r sjuttiosex kilometer till Rom'
p214
aS'Vi har varit gifta i tjugo \xc3\xa5r'
p215
aS'Mina f\xc3\xb6rel\xc3\xa4sare har varit v\xc3\xa4ldigt duktiga p\xc3\xa5 att f\xc3\xb6rklara saker och ting'
p216
aS'Nog: Du l\xc3\xa4gger till en viss tveksamhet'
p217
aS'Plus, minus, g\xc3\xa5nger, delat med'
p218
aS'F\xc3\xb6rl\xc3\xa5t mig, ursk\xc3\xa4kta...'
p219
aS'Jag \xc3\xa4r inte \xc3\xb6verens med dig'
p220
aS'Jag simmar i havet och seglar p\xc3\xa5 havet'
p221
aS'H\xc3\xa4ll i lite salt i soppan'
p222
aS'Det r\xc3\xa4cker!'
p223
aS'Det \xc3\xa4r till h\xc3\xb6ger om kaf\xc3\xa9et'
p224
aS'Javisst!'
p225
aS'Varf\xc3\xb6r tycker du b\xc3\xa4ttre om vintern? Jag tycker inte om Antarktis'
p226
aS'G\xc3\xa5 p\xc3\xa5 m\xc3\xa5nen!'
p227
aS'\xc3\x84r du klar?'
p228
aS'Hur dags anl\xc3\xa4nder flyget?'
p229
aS'Hur l\xc3\xa4nge har du studerat?'
p230
aS'Jag har studerat svenska i fem \xc3\xa5r'
p231
aS'Jag beklagar sorgen...'
p232
aS'Jag tycker om rock, pop och s\xc3\xa5n'
p233
aS'Jag tar nog tunnelbanan'
p234
aS'Det h\xc3\xa4r \xc3\xa4r en staty av en katt'
p235
aS'Vi kan cykla p\xc3\xa5 vara cyklar'
p236
aS'Det v\xc3\xa4xer vete p\xc3\xa5 f\xc3\xa4lten'
p237
aS'ha det bra!'
p238
aS'Vi ses! Vi tr\xc3\xa4ffas... Vi h\xc3\xb6rs!'
p239
aS'Det \xc3\xa4r dags att du b\xc3\xb6rjar arbeta!'
p240
aS'Var bra!'
p241
aS'Titta p\xc3\xa5 det!'
p242
aS'Hur mycket kostar det att hyra en cykel en dag?'
p243
aS'Det m\xc3\xa5ste finnas n\xc3\xa5got d\xc3\xa4r'
p244
aS'Om hon hade en sm\xc3\xb6rg\xc3\xa5s skulle hon inte vara hungrig'
p245
aS'Det \xc3\xa4r f\xc3\xb6r m\xc3\xa5nga m\xc3\xa4nniskor p\xc3\xa5 tunnelbanan'
p246
aS'Det st\xc3\xa5r "V\xc3\xa4lkommen" p\xc3\xa5 tavlan'
p247
atRp248
.