c__builtin__
set
p1
((lp2
S''
aS'Vad \xc3\xa4r det i soppan?'
p3
aS'N\xc3\xa5gon har skrivit brev till mig!'
p4
aS'Vad ska ni g\xc3\xb6ra n\xc3\xa4r ni har seglat?'
p5
aS'Hon st\xc3\xa5r i k\xc3\xb6'
p6
aS'Ska jag ta med din kopp till k\xc3\xb6ket?'
p7
aS'Finns det tillr\xc3\xa4ckligt med gaffler \xc3\xa5t alla?'
p8
aS'Jag dricker te till frukost'
p9
aS'Vet du hur m\xc3\xa5nga personer som kommer?'
p10
aS'Det ligger norr om Kina'
p11
aS'Jag studerade svenska f\xc3\xb6r fem \xc3\xa5r sedan'
p12
aS'Vill du ha n\xc3\xa5got att dricka?'
p13
aS'Visste du att jag talar arabiska? G\xc3\xb6r du? Det visste jag inte'
p14
aS'Det d\xc3\xa4r otrevliga blir trevlig'
p15
aS'Vill du g\xc3\xa5 ner i vikt?'
p16
aS'Vill du dansa med mig?'
p17
aS'Jag vill g\xc3\xa4rna ha lite kaffe'
p18
aS'Jag spelar piano'
p19
aS'Vad duktig du var!'
p20
aS'Vart ska mamma g\xc3\xa5? Vart gick mamma?'
p21
aS'T\xc3\xa5get g\xc3\xa5r till Paris'
p22
aS'Vilket lag spelar du i?'
p23
aS'Jag skojar!'
p24
aS'Kan du k\xc3\xb6pa det till mig?'
p25
aS'Jag ska dammsuga golvet n\xc3\xa4r jag har kommit hem'
p26
aS'Jag har redan \xc3\xa4tit lunch idag'
p27
aS'Fungerar den h\xc3\xa4r datorn? Nej, det g\xc3\xb6r den inte'
p28
aS'Jag h\xc3\xb6rde fel'
p29
aS'V\xc3\xa4rf\xc3\xb6r ringer hon inte?'
p30
aS'Pianon och gitarrer \xc3\xa4r olika sorters instrument'
p31
aS'Jag studerade svenska under fem \xc3\xa5r'
p32
aS'Har de sagt vilka som vann matchen?'
p33
aS'Den v\xc3\xa4nstra citronen v\xc3\xa4ger lika mycket som den h\xc3\xb6gra'
p34
aS'F\xc3\xb6rel\xc3\xa4sning, klass'
p35
aS'Jag har ingen flickv\xc3\xa4n'
p36
aS'Vad tog du med?'
p37
aS'Var vill du att jag ska sitta?'
p38
aS'Jag ska g\xc3\xb6ra det, p\xc3\xa5 n\xc3\xa5t s\xc3\xa4tt'
p39
aS'Tjejkompis'
p40
aS'En dag kommer kag att arbeta p\xc3\xa5 en bank'
p41
aS'Vad heter det h\xc3\xa4r p\xc3\xa5 svenska?'
p42
aS'En dag ska jag dansa lika bra som hon'
p43
aS'Norra, \xc3\xb6stra, v\xc3\xa4stra, s\xc3\xb6dra'
p44
aS'Jag ska bli l\xc3\xa4rare. Slut och punkt!'
p45
aS'Han kl\xc3\xa4ttrar upp p\xc3\xa5 segelb\xc3\xa5ten. Hon kl\xc3\xa4ttrar i ett tr\xc3\xa4d'
p46
aS'Jag \xc3\xa5t upp allt!'
p47
aS'Vi m\xc3\xa5ste g\xc3\xa5 dit!'
p48
aS'Faster, farbror, morbro, moster, barnbarn, kusiner, bonuspappa, gudmor, morf\xc3\xb6r\xc3\xa4ldrar, syskonbarn'
p49
aS'Hall\xc3\xa5, det \xc3\xa4r Alex! Kan jag f\xc3\xa5 tala med Louise?'
p50
aS'Jag letar efter min rock. Har du sett den?'
p51
aS'Vilken sorts fest ska det vara?'
p52
aS'Flickan \xc3\xb6var piano'
p53
aS'Vi tr\xc3\xa4ffades p\xc3\xa5 kaf\xc3\xa9et d\xc3\xa4r jag arbetade'
p54
aS'Jag kommer den tjugoandra oktober. Kom uppf\xc3\xb6r!'
p55
aS'F\xc3\xb6rsta, andra, tredje, fj\xc3\xa4rde'
p56
aS'Hon har g\xc3\xa5tt vilse!'
p57
aS'De flesta har r\xc3\xb6stat p\xc3\xa5 honom'
p58
aS'Gratulerar till bebisen!'
p59
aS'Det finns mycket plats i den'
p60
aS'Honom, henne, mig, dig, dem'
p61
aS'Finns det tillr\xc3\xa4ckligt med plats?'
p62
aS'Efter dansen \xc3\xa4r Renate mycket hungrig'
p63
aS'Det \xc3\xa4r en stor del av mitt liv'
p64
aS'F\xc3\xa5r jag komma in?'
p65
aS'Hunden f\xc3\xa5r inte g\xc3\xa5 h\xc3\xa4r'
p66
aS'Vad arbetar du med? Vad arbetar du p\xc3\xa5?'
p67
aS'Det sitter n\xc3\xa5gra katter i f\xc3\xb6nstret'
p68
aS'Jag s\xc3\xa4tter i ett kort i bankomaten'
p69
aS'Jag g\xc3\xa4rna... (g\xc3\xb6ra n\xc3\xa5got)'
p70
aS'De kommer at kunna flyga om tv\xc3\xa5 veckor'
p71
aS'Varf\xc3\xb6r \xc3\xa4r hon ledsen? D\xc3\xa4rf\xc3\xb6r att hon *inte kan* hitta sin hund'
p72
aS'Tyv\xc3\xa4rr \xc3\xa4r jag upptagen'
p73
aS'Jag gillar cykling och simning, jag tycker om att simma'
p74
aS'Vad kan jag hj\xc3\xa4lpa till med?'
p75
aS'Han tar ut en penna ur sin portf\xc3\xb6lj'
p76
aS'Hej! Jag \xc3\xa4r p\xc3\xa5 idrottsplatsen! Det ligger i centrum'
p77
aS'V\xc3\xa4rldens otur hade de!'
p78
aS'Du borde tv\xc3\xa4tta ansiktet'
p79
aS'Ta den h\xc3\xa4r medicin en g\xc3\xa5ng om dagen.'
p80
aS'Dollar \xc3\xa4r en sorts valuta'
p81
aS'Klockan \xc3\xa4r mycket!'
p82
aS'Jag vill ha en tredjedel av t\xc3\xa5rtan'
p83
aS'Det \xc3\xa4r v\xc3\xa4l det som \xc3\xa4r skillnaden'
p84
aS'Vill du ha mj\xc3\xb6lk till?'
p85
aS'Om du kan r\xc3\xa4kna objekten \xc3\xa4nv\xc3\xa4nder du m\xc3\xa5nga, annars anv\xc3\xa4nder du mycket'
p86
aS'Vart ska du?'
p87
aS'Jag l\xc3\xa4ser av termometern'
p88
aS'Jag tror inte att det finns n\xc3\xa5gon h\xc3\xa4r'
p89
aS'Vad dricker du f\xc3\xb6r vin?'
p90
aS'Sju sj\xc3\xb6sjuka sj\xc3\xb6m\xc3\xa4n p\xc3\xa5 skeppet shanghai skj\xc3\xb6ljde sina sju skitiga skjortor i sj\xc3\xb6n'
p91
aS'Kan du s\xc3\xa4aga det igen?'
p92
aS'P\xc3\xa5 rea!'
p93
aS'Jag sa att jag tycker om din skjorta'
p94
aS'Steves farmor tycker att Steve ska sluta r\xc3\xb6ka'
p95
aS'Ska vi g\xc3\xa5 till parken? \xc3\x84r du klar att \xc3\xa5ka?'
p96
aS'Jag let mot flickan'
p97
aS'Javisst!'
p98
aS'F\xc3\xb6rl\xc3\xa5t! Ingen fara, det g\xc3\xb6r inget'
p99
aS'Inte s\xc3\xa5 mycket'
p100
aS'Det finns m\xc3\xa5nga fiskar i havet'
p101
aS'Du m\xc3\xa5ste ha p\xc3\xa5 dig kappan'
p102
aS'L\xc3\xa4gg i dem!'
p103
aS'Den *amerikanska* presidenten bor h\xc3\xa4r'
p104
aS'Hon har k\xc3\xb6pt choklad till oss!'
p105
aS'Sylten och marmeladen \xc3\xa4r n\xc3\xa4stan samma sak'
p106
aS'Hon sover under filmen'
p107
aS'F\xc3\xb6rst... sedan... till sist...'
p108
aS'Kan du spela n\xc3\xa5got?'
p109
aS'Hon var tidigt till kursen'
p110
aS'Ha det bra!'
p111
aS'Vad \xc3\xa4r klockan exact nu?'
p112
aS'Jag \xc3\xa4r r\xc3\xa4dd f\xc3\xb6r hajar'
p113
aS'V\xc3\xa4lkomna hem till oss!'
p114
aS'Letar du efter n\xc3\xa5got?'
p115
aS'St\xc3\xa4ll dig p\xc3\xa5 v\xc3\xa5gen'
p116
aS'Jag ska ringa dig om tv\xc3\xa5 timmar'
p117
aS'I s\xc3\xa5 fall, jag ska ta det. I varje fall jag ska g\xc3\xa5'
p118
aS'Deras spr\xc3\xa5k \xc3\xa4r vackert'
p119
aS'Vad t\xc3\xa4nker du p\xc3\xa5? Jag t\xc3\xa4nker p\xc3\xa5 dig'
p120
aS'\xc3\x84t inte det h\xc3\xa4r! \xc3\x84t inte h\xc3\xa4r!'
p121
aS'Det finns inte tillr\xc3\xa4ckligt med datorer \xc3\xa5t barnen'
p122
aS'\xc3\x84ven om det gula laget spelar mycket bra, kommer det bl\xc3\xa5a laget antagligen att vinna'
p123
aS'Den h\xc3\xa4r cyckeln \xc3\xa4r min'
p124
aS'De hyr en bil, och de l\xc3\xa4mnar det tillbaka senare'
p125
aS'D\xc3\xa5 var jag elev... tidigare var jag...'
p126
aS'Han rider vid havet, och hon har skrivit i sn\xc3\xb6n. Jag cycklar i regnet'
p127
aS'Var f\xc3\xb6rsiktig!'
p128
aS'Om det inte regnar, jag ska springer'
p129
aS'Jag f\xc3\xb6rst\xc3\xa5r bara lite av han s\xc3\xa4ger'
p130
aS'Det finns en bredvid banken p\xc3\xa5 n\xc3\xa4sta gata'
p131
aS'Det kostar mycket pengar!'
p132
aS'Det h\xc3\xa4r (ok\xc3\xa4nda ord)'
p133
aS'Killkompis'
p134
aS'K\xc3\xa4nner ni varandra?'
p135
aS'Den uppt\xc3\xa4cktes i Egypten av en fransk soldat'
p136
aS'Kan du ta ett foto av oss?'
p137
aS'Har du n\xc3\xa5gonsin varit i Norra Italien? Jag vill \xc3\xa5ka dit en dag'
p138
aS'Ta med, h\xc3\xa4mtar... F\xc3\xa5, m\xc3\xa5ste, kan...'
p139
aS'Du \xc3\xa4r fr\xc3\xa5n Stockholm, eller hur?'
p140
aS'\xc3\x84r du klar?'
p141
aS'Det st\xc3\xa5r m\xc3\xa5nga t\xc3\xa4lt i parken'
p142
aS'Kan jag... ? Ja, det kan du'
p143
aS'Jag \xc3\xa5ker mot \xc3\x96st!'
p144
aS'Vad \xc3\xa4r det f\xc3\xb6r v\xc3\xa4der? Det \xc3\xa4r molnigt, men det ska bli varmt idag'
p145
aS'Sex laxar i en laxask'
p146
aS'Jag ramlade av cyckeln!'
p147
aS'Om du ovar kommer du att kunna spela bra'
p148
aS'F\xc3\xb6r f\xc3\xb6rsta g\xc3\xa5nger'
p149
aS'De f\xc3\xb6rlorade fler matcher \xc3\xa4n det bl\xc3\xa5a laget'
p150
aS'Jag \xc3\xa4r i bergen! Jag ska ringa dig senare'
p151
aS'Mannen s\xc3\xa4tter in pizzan i ugnen'
p152
aS'Hon vill att du ska ringa henne klockan fyra'
p153
aS'Jag har inte tr\xc3\xa4ffat n\xc3\xa5gon av dem'
p154
aS'Tr\xc3\xa4den \xc3\xa4r mycket h\xc3\xb6ga'
p155
aS'Stilla havet, Norra ishavet, Indiska oceanen, Atlanten'
p156
aS'Glasset \xc3\xa4r fullt av mj\xc3\xb6lk'
p157
aS'Det kostar minst tio dollar'
p158
aS'Den \xc3\xa4ldsta flickan l\xc3\xa4ser boken f\xc3\xb6r de yngre flickorna'
p159
aS'Kan du b\xc3\xa4ra min portf\xc3\xb6lj av mig?'
p160
aS'Jag undervisar i musik'
p161
aS'Oj d\xc3\xa5!'
p162
aS'Hur l\xc3\xa4nge ska musikgruppen spela? I tv\xc3\xa5 timmar'
p163
aS'Jag hoppas att jag f\xc3\xa5r en flicka'
p164
aS'Tror du att det kommer att regna? Ja, jag tror att det kommer att regna'
p165
aS'Skoj! Vad kul!'
p166
aS'Meditation \xc3\xa4r j\xc3\xa4ttebra f\xc3\xb6r mentala h\xc3\xa4lsan'
p167
aS'\xc3\xa5 \xc3\xa4 \xc3\xb6'
p168
aS'Det \xc3\xa4r soligt, molnigt... Det regnar, sn\xc3\xb6ar... Det \xc3\xa4r kallt, varmt'
p169
aS'En av de h\xc3\xa4r hundarna har en tr\xc3\xb6ja'
p170
aS'Om du v\xc3\xa4ntar, en dag kommer bananerna att vara mogna'
p171
aS'Jag f\xc3\xb6ddes f\xc3\xb6r 15 \xc3\xa5r sedan i Sydamerika'
p172
aS'Jag l\xc3\xa4ste klart en bok'
p173
aS'N\xc3\xa4r togs det h\xc3\xa4r fotot?'
p174
aS'Jag sprang i m\xc3\xa5ndags i f\xc3\xb6rra veckan'
p175
aS'Nu \xc3\xa5ker vi!'
p176
aS'Det finns nio miljoner personer i Sverige'
p177
aS'Ska jag ta med n\xc3\xa5got?'
p178
aS'Vems segelb\xc3\xa5t \xc3\xa4r det h\xc3\xa4r?'
p179
aS'Det kommer antagligen att sn\xc3\xb6ar ikv\xc3\xa4ll'
p180
aS'Man ska inte reparera en cykel s\xc3\xa5 d\xc3\xa4r'
p181
aS'Har du provat det?'
p182
aS'Var v\xc3\xa4xer de h\xc3\xa4r v\xc3\xa4xterna?'
p183
aS'N\xc3\xa4r blir det klart? Snart...'
p184
aS'T\xc3\xa5rtan bakades p\xc3\xa5 morgonen'
p185
aS'Det \xc3\xa4r sjuttiosex kilometer till Rom'
p186
aS'Vi har varit gifta i tjugo \xc3\xa5r'
p187
aS'Plus, minus, g\xc3\xa5nger, delat med'
p188
aS'F\xc3\xb6rl\xc3\xa5t mig, ursk\xc3\xa4kta...'
p189
aS'Jag \xc3\xa4r inte \xc3\xb6verens med dig'
p190
aS'Jag simmar i havet och seglar p\xc3\xa5 havet'
p191
aS'H\xc3\xa4ll i lite salt i soppan'
p192
aS'Det r\xc3\xa4cker!'
p193
aS'Det \xc3\xa4r till h\xc3\xb6ger om kaf\xc3\xa9et'
p194
aS'Den h\xc3\xa4r statyn gjordes i forntida Rom'
p195
aS'Varf\xc3\xb6r tycker du b\xc3\xa4ttre om vintern? Jag tycker inte om Antarktis'
p196
aS'G\xc3\xa5 p\xc3\xa5 m\xc3\xa5nen!'
p197
aS'Han f\xc3\xb6ddes 1980. Han gifte sig den h\xc3\xa4r veckan'
p198
aS'Hur dags anl\xc3\xa4nder flyget?'
p199
aS'Hur l\xc3\xa4nge har du studerat?'
p200
aS'Jag har studerat svenska i fem \xc3\xa5r'
p201
aS'Jag beklagar sorgen...'
p202
aS'Jag tycker om rock, pop och s\xc3\xa5n'
p203
aS'Jag tar nog tunnelbanan'
p204
aS'Det h\xc3\xa4r \xc3\xa4r en staty av en katt'
p205
aS'Vi kan cykla p\xc3\xa5 vara cyklar'
p206
aS'Det v\xc3\xa4xer vete p\xc3\xa5 f\xc3\xa4lten'
p207
aS'ha det bra!'
p208
aS'Vi ses! Vi tr\xc3\xa4ffas... Vi h\xc3\xb6rs!'
p209
aS'Det \xc3\xa4r dags att du b\xc3\xb6rjar arbeta!'
p210
aS'Var bra!'
p211
aS'Titta p\xc3\xa5 det!'
p212
aS'Hur mycket kostar det att hyra en cykel en dag?'
p213
aS'Det m\xc3\xa5ste finnas n\xc3\xa5got d\xc3\xa4r'
p214
aS'Om hon hade en sm\xc3\xb6rg\xc3\xa5s skulle hon inte vara hungrig'
p215
aS'Det \xc3\xa4r f\xc3\xb6r m\xc3\xa5nga m\xc3\xa4nniskor p\xc3\xa5 tunnelbanan'
p216
aS'Det st\xc3\xa5r "V\xc3\xa4lkommen" p\xc3\xa5 tavlan'
p217
atRp218
.