(dp1
S'alltf\xc3\xb6r'
p2
S'too, over'
p3
sS'r\xc3\xa4knar'
p4
S'count'
p5
sS'\xc3\xb6gonblick'
p6
S'second, moment'
p7
sS'umg\xc3\xa5s'
p8
S'socialize, keep company'
p9
sS'\xc3\xb6knen'
p10
S'desert (also \xc3\xb6ken)'
p11
sS'somnar'
p12
S'fall asleep'
p13
sS'h\xc3\xa4lsa p\xc3\xa5'
p14
S'visit'
p15
sS'begriper'
p16
S'understand, catch on'
p17
sS'ge'
p18
S'give'
p19
sS'f\xc3\xb6rut'
p20
S'before'
p21
sS'andra'
p22
S'second, other'
p23
sS'blyertspenna'
p24
S'pencil'
p25
sS'kryddstark'
p26
S'hot (spicy)'
p27
sS'reparerar'
p28
S'repair'
p29
sS'inkomst'
p30
S'income'
p31
sS'skylte'
p32
S'sign'
p33
sS'p\xc3\xa5st\xc3\xa5ende'
p34
S'claim'
p35
sS'kristen'
p36
S'christian'
p37
sS'glad'
p38
S'happy'
p39
sS'urgott'
p40
S'j\xc3\xa4ttej\xc3\xa4ttegott'
p41
sS'l\xc3\xa4gg'
p42
S'add, leave (something somewhere)'
p43
sS'hinduisk'
p44
S'hindi'
p45
sS'dela'
p46
S'share'
p47
sS'beundra'
p48
S'admire, adore'
p49
sS'mogen'
p50
S'ripe, adult, mature'
p51
sS'f\xc3\xb6rsenat'
p52
S'late'
p53
sS'l\xc3\xb6pband'
p54
S'treadmill'
p55
sS'billig'
p56
S'cheap'
p57
sS'mosk\xc3\xa9n'
p58
S'mosque'
p59
sS'f\xc3\xa5r'
p60
S'sheep'
p61
sS'inv\xc3\xa5nare'
p62
S'local, native'
p63
sS'strand'
p64
S'beach'
p65
sS'k\xc3\xa4nner'
p66
S'feel, know (people)'
p67
sS'sant'
p68
S'true'
p69
sS'armb\xc3\xa5gen'
p70
S'elbow'
p71
sS'utanf\xc3\xb6r'
p72
S'outside'
p73
sS'sovrum'
p74
S'room'
p75
sS'l\xc3\xa5da'
p76
S'box'
p77
sS'lever'
p78
S'live'
p79
sS'handfatet'
p80
S'washbasin'
p81
sS'p\xc3\xa5se'
p82
S'bag'
p83
sS'kl\xc3\xa4ttrar p\xc3\xa5'
p84
S'climb'
p85
sS'segelb\xc3\xa5t'
p86
S'sailboat'
p87
sS'skiva'
p88
S'slice'
p89
sS'fredags'
p90
S'last Friday'
p91
sS'synd'
p92
S'pity'
p93
sS'best\xc3\xa4ll'
p94
S'order'
p95
sS'f\xc3\xa4rsk'
p96
S'fresh, new'
p97
sS'skadar'
p98
S'damage'
p99
sS'b\xc3\xb6rjar'
p100
S'start'
p101
sS'f\xc3\xb6rflutna'
p102
S'past'
p103
sS'bakom'
p104
S'behind'
p105
sS'kom ih\xc3\xa5g'
p106
S'remember'
p107
sS'viktig'
p108
S'important'
p109
sS'skraplott'
p110
S'scratch card'
p111
sS'k\xc3\xb6r'
p112
S'drive, choir (different sound [sh|k])'
p113
sS'tidig'
p114
S'early'
p115
sS'seglar'
p116
S'sail'
p117
sS'bidrag'
p118
S'grant'
p119
sS't\xc3\xa5ng'
p120
S'pincers'
p121
sS'soldater'
p122
S'soldier'
p123
sS'sur'
p124
S'sour, moody'
p125
sS'b\xc3\xb6ter'
p126
S'fine'
p127
sS'avsluta'
p128
S'end, close'
p129
sS'full'
p130
S'full, drunk'
p131
sS'gr\xc3\xa4s'
p132
S'grass'
p133
sS'vacker'
p134
S'pretty, fair'
p135
sS'uppt\xc3\xa4cka'
p136
S'discover'
p137
sS'ler'
p138
S'smile'
p139
sS'packar upp'
p140
S'unpack'
p141
sS's\xc3\xb6t'
p142
S'sweet'
p143
sS'servit\xc3\xb6r'
p144
S'waiter'
p145
sS'ful'
p146
S'ugly'
p147
sS'pingvin'
p148
S'penguin'
p149
sS'sv\xc3\xa5righeter'
p150
S'difficulty'
p151
sS'minst'
p152
S'least, at least'
p153
sS'v\xc3\xa5g'
p154
S'wave, scale'
p155
sS'gubben'
p156
S'old man'
p157
sS'schack'
p158
S'chess'
p159
sS'marken'
p160
S'ground'
p161
sS'tj\xc3\xa4nar'
p162
S'earn'
p163
sS'vid'
p164
S'at, by, at the time of'
p165
sS'faktist'
p166
S'actually'
p167
sS'skr\xc3\xa4p'
p168
S'litter'
p169
sS'bro'
p170
S'bridge'
p171
sS'hals'
p172
S'neck'
p173
sS'tejp'
p174
S'tape'
p175
sS'mening'
p176
S'sentence'
p177
sS'regnskogen'
p178
S'rainforest'
p179
sS'redo'
p180
S'ready'
p181
sS'skriv ner'
p182
S'write down'
p183
sS'fel'
p184
S'error, wrong'
p185
sS'fet'
p186
S'fat'
p187
sS'f\xc3\xb6rebild'
p188
S'example, model'
p189
sS'aff\xc3\xa4rsman'
p190
S'businessman'
p191
sS'kasse'
p192
S'bag'
p193
sS'trist'
p194
S'boring, sad, dull'
p195
sS'landet'
p196
S'country, the countryside (rural)'
p197
sS'kanske'
p198
S'maybe'
p199
sS'konkurrens'
p200
S'competition'
p201
sS'p\xc3\xa4rm'
p202
S'binder'
p203
sS'glas'
p204
S'glass'
p205
sS'ljus'
p206
S'light'
p207
sS'servetten'
p208
S'napkin'
p209
sS'k\xc3\xa4r'
p210
S'love, dear'
p211
sS'glass'
p212
S'ice cream'
p213
sS'st\xc3\xa4lle'
p214
S'place'
p215
sS'sorg'
p216
S'loss, pain'
p217
sS'bensinstation'
p218
S'gas station'
p219
sS'sp\xc3\xa4nnande'
p220
S'exciting'
p221
sS'ljud'
p222
S'sound'
p223
sS'd\xc3\xa5lig'
p224
S'bad'
p225
sS'ber\xc3\xa4tta'
p226
S'tell'
p227
sS'styck'
p228
S'piece, unit'
p229
sS'fungerar'
p230
S'function, work'
p231
sS'fickan'
p232
S'pocket'
p233
sS'l\xc3\xa4gg m\xc3\xa4rke'
p234
S'take notice, pay attention to'
p235
sS'jobbig'
p236
S'hard, laborious'
p237
sS'allvarlig'
p238
S'seriously, serious, severe'
p239
sS'del'
p240
S'part'
p241
sS'skruvmejsel'
p242
S'screwdriver'
p243
sS'ny\xc3\xa5r'
p244
S'new year'
p245
sS'kl\xc3\xa4r sig'
p246
S'dresses'
p247
sS'anpassar'
p248
S'adapt, get used to'
p249
sS'l\xc3\xa5ngsam'
p250
S'slow'
p251
sS'kyl'
p252
S'fridge'
p253
sS'n\xc3\xa5gra'
p254
S'some'
p255
sS'kostnad'
p256
S'cost'
p257
sS'assiett'
p258
S'plate, dish'
p259
sS'gaffeln'
p260
S'fork'
p261
sS'v\xc3\xa5gr\xc3\xa4tt'
p262
S'horizontally'
p263
sS'hostar'
p264
S'cough'
p265
sS'tak'
p266
S'roof, ceiling'
p267
sS'sats'
p268
S'preposition'
p269
sS'gitarr'
p270
S'gitar'
p271
sS'stig'
p272
S'path'
p273
sS'undantag'
p274
S'exception'
p275
sS'firar'
p276
S'celebrate'
p277
sS'barrtr\xc3\xa4d'
p278
S'pine, coniferous'
p279
sS's\xc3\xa4ker'
p280
S'certain, sure, clear'
p281
sS'tj\xc3\xa4nst'
p282
S'post, job'
p283
sS'\xc3\xa4ven'
p284
S'even, also'
p285
sS'betydelse'
p286
S'meaning'
p287
sS'stilla'
p288
S'pacific'
p289
sS'r\xc3\xa4dd'
p290
S'scared'
p291
sS'gymnasieskolan'
p292
S'secondary school'
p293
sS'g\xc3\xa5 \xc3\xb6ver'
p294
S'cross'
p295
sS'pigg'
p296
S'alert, alive, sharp'
p297
sS'fy'
p298
S'oh!, ugh, phew'
p299
sS'f\xc3\xb6ddes'
p300
S'be born'
p301
sS'lag'
p302
S'team'
p303
sS'fart'
p304
S'speed'
p305
sS'f\xc3\xb6rs\xc3\xb6k'
p306
S'try, attempt'
p307
sS'font\xc3\xa4n'
p308
S'fountain'
p309
sS'fr\xc3\xa4mst'
p310
S'mainly, chiefly'
p311
sS'svamp'
p312
S'mushroom'
p313
sS'nyligen'
p314
S'lately'
p315
sS'lat'
p316
S'lazy'
p317
sS'v\xc3\xa4xte upp'
p318
S'grow up'
p319
sS'macka'
p320
S'sandwich'
p321
sS'flyttar'
p322
S'move'
p323
sS'vikt'
p324
S'weight'
p325
sS'h\xc3\xa4rlig'
p326
S'lovely, divine, magnificient'
p327
sS'sk\xc3\xa5p'
p328
S'cabinet, cupboard'
p329
sS'v\xc3\xa4xlar'
p330
S'exchange (money), gear, break'
p331
sS'br\xc3\xb6lopp'
p332
S'wedding'
p333
sS'komplicerad'
p334
S'complex, complicated'
p335
sS'gr\xc3\xa5ter'
p336
S'cry'
p337
sS'ganska'
p338
S'quite'
p339
sS'rutten'
p340
S'rotten'
p341
sS'n\xc3\xa5gonting'
p342
S'something'
p343
sS'varg'
p344
S'wolf'
p345
sS'l\xc3\xa4nge'
p346
S'for a long time'
p347
sS'vara'
p348
S'good, product'
p349
sS'sl\xc3\xa4ng'
p350
S'throw'
p351
sS'bidra'
p352
S'contribute'
p353
sS'paraden'
p354
S'parade'
p355
sS'v\xc3\xa4lja'
p356
S'choose'
p357
sS'skolb\xc3\xa4nk'
p358
S'school desk'
p359
sS'rika'
p360
S'rich'
p361
sS'f\xc3\xa4lt'
p362
S'field'
p363
sS'ledsen'
p364
S'sad'
p365
sS'f\xc3\xa5'
p366
S'few'
p367
sS'personlig'
p368
S'personal'
p369
sS'fin'
p370
S'good, nice'
p371
sS'kr\xc3\xa4ver'
p372
S'claim (verb), need'
p373
sS'vanligtvis'
p374
S'usually, often'
p375
sS'nog'
p376
S'enough, sufficient, probably'
p377
sS'dusch'
p378
S'shower'
p379
sS'upptagen'
p380
S'busy'
p381
sS'k\xc3\xa4llar'
p382
S'basement'
p383
sS'fiol'
p384
S'violin'
p385
sS'jorden'
p386
S'Earth'
p387
sS'orsak'
p388
S'source, reason'
p389
sS'omkring'
p390
S'around'
p391
sS'skeden'
p392
S'spoon'
p393
sS'musiker'
p394
S'musician'
p395
sS'utvecklar'
p396
S'develop, produce'
p397
sS'sopor'
p398
S'garbage'
p399
sS'm\xc3\xa5lning'
p400
S'painting'
p401
sS'trappan'
p402
S'stairs'
p403
sS'k\xc3\xb6rsb\xc3\xa4r'
p404
S'cherries'
p405
sS'storlek'
p406
S'size'
p407
sS'r\xc3\xa4kor'
p408
S'shrimps'
p409
sS'\xc3\xa4mne'
p410
S'material, stuff, issue, subject'
p411
sS'diskmaskin'
p412
S'dishwashing machine'
p413
sS'bildning'
p414
S'culture, learning, refinement'
p415
sS'f\xc3\xb6delsedag'
p416
S'birthday'
p417
sS'skriv ut'
p418
S'print'
p419
sS'i st\xc3\xa4llet'
p420
S'instead'
p421
sS'l\xc3\xa4tt'
p422
S'easy, light'
p423
sS'skoj'
p424
S'fun'
p425
sS'forntid'
p426
S'ancient times'
p427
sS'skog'
p428
S'forest'
p429
sS'konst'
p430
S'art'
p431
sS'flyg'
p432
S'flight'
p433
sS'tr\xc3\xa4dg\xc3\xa5rden'
p434
S'garden'
p435
sS'hellre'
p436
S'rather'
p437
sS'n\xc3\xa4sa'
p438
S'nose'
p439
sS'tenta'
p440
S'exam'
p441
sS'aldrig'
p442
S'never'
p443
sS'klar'
p444
S'set, clear, finished'
p445
sS'endast'
p446
S'alone, merely'
p447
sS'bygga om'
p448
S'redo'
p449
sS'kossa'
p450
S'cow (female)'
p451
sS'kjol'
p452
S'skirt'
p453
sS'avg\xc3\xb6r'
p454
S'determine, decide, resolve'
p455
sS'tjur'
p456
S'bull'
p457
sS'n\xc3\xb6dv\xc3\xa4ndigt'
p458
S'required, necessary'
p459
sS'nobelpristagare'
p460
S'winner of the Nobel Prize'
p461
sS'rea'
p462
S'sale'
p463
sS'v\xc3\xa4l'
p464
S'well'
p465
sS'obekant'
p466
S'strange, unfamiliar'
p467
sS'besv\xc3\xa4rlig'
p468
S'troublesome, difficult'
p469
sS'b\xc3\xa5da'
p470
S'both'
p471
sS'konstn\xc3\xa4r'
p472
S'artist'
p473
sS'orm'
p474
S'snake'
p475
sS'seri\xc3\xb6s'
p476
S'serious'
p477
sS'ask'
p478
S'box'
p479
sS'byta'
p480
S'switch, trade, change'
p481
sS'v\xc3\xa4rde'
p482
S'worth'
p483
sS'val'
p484
S'whale, choice, election'
p485
sS'bredvid'
p486
S'next to'
p487
sS'skilja'
p488
S'difference, distinction'
p489
sS'kung'
p490
S'king'
p491
sS'n\xc3\xa5gonsin'
p492
S'ever'
p493
sS'ensam'
p494
S'alone'
p495
sS'egentligen'
p496
S'actually'
p497
sS's\xc3\xa5n'
p498
S'such (also s\xc3\xa5dan)'
p499
sS'skillnad'
p500
S'difference'
p501
sS'skifta'
p502
S'change, shift'
p503
sS'fast'
p504
S'fixed, compact, inflexible'
p505
sS'p\xc3\xa5 nytt'
p506
S'again'
p507
sS'letar'
p508
S'look'
p509
sS'ont'
p510
S'pain'
p511
sS'v\xc3\xa4rdefulla'
p512
S'valuable'
p513
sS'nuvarande'
p514
S'present'
p515
sS'beklaga'
p516
S'regret'
p517
sS'liknar'
p518
S'seem, resemble, compare'
p519
sS'struts'
p520
S'ostrich'
p521
sS'\xc3\xa5'
p522
S'river'
p523
sS'f\xc3\xb6rbi'
p524
S'gone, past, over'
p525
sS'tom'
p526
S'empty'
p527
sS'sj\xc3\xb6'
p528
S'lake'
p529
sS'\xc3\xb6'
p530
S'island'
p531
sS'schema'
p532
S'schedule'
p533
sS'blomster'
p534
S'flower'
p535
sS'st\xc3\xa4ller'
p536
S'put, set, support'
p537
sS'shorts'
p538
S'shorts'
p539
sS'm\xc3\xa4ter'
p540
S'measure'
p541
sS'f\xc3\xb6rm\xc3\xa5ga'
p542
S'ability, capacity, faculty, talent'
p543
sS'f\xc3\xb6rsiktig'
p544
S'careful'
p545
sS'framtiden'
p546
S'future'
p547
sS'nyhet'
p548
S'news'
p549
sS'klarg\xc3\xb6rer'
p550
S'clear, disambiguate'
p551
sS'sv\xc3\xa5r'
p552
S'difficult'
p553
sS'siffra'
p554
S'figure, digit'
p555
sS'bara'
p556
S'just'
p557
sS'kind'
p558
S'cheek'
p559
sS'kameler'
p560
S'camel'
p561
sS'avtal'
p562
S'agreement'
p563
sS'sk\xc3\xb6n'
p564
S'nice, beautiful'
p565
sS'm\xc3\xa5l'
p566
S'goal'
p567
sS'stavg\xc3\xa5ng'
p568
S'nordic walk'
p569
sS'anv\xc3\xa4nda'
p570
S'use'
p571
sS'and'
p572
S'duck (\xc3\xa4nderna)'
p573
sS'packar'
p574
S'pack'
p575
sS'visning'
p576
S'show, demonstration, exhibition'
p577
sS'b\xc3\xb6rda'
p578
S'weight, load, cargo'
p579
sS'ram'
p580
S'frame'
p581
sS'fyrkantig'
p582
S'square-shaped'
p583
sS'statsminister'
p584
S'Prime Minister'
p585
sS'v\xc3\xa4ger'
p586
S'weigh'
p587
sS'h\xc3\xa4ll'
p588
S'put, pour'
p589
sS'sax'
p590
S'scissor'
p591
sS'tidtabell'
p592
S'schedule'
p593
sS'tv\xc3\xa4rtom'
p594
S'vice-versa'
p595
sS'anger'
p596
S'specify, mention, assign'
p597
sS't\xc3\xa4nder'
p598
S'light (verb)'
p599
sS'forn'
p600
S'ancient'
p601
sS'l\xc3\xa5t'
p602
S'let'
p603
sS'n\xc3\xb6tk\xc3\xb6tt'
p604
S'beef'
p605
sS'l\xc3\xa4mnar'
p606
S'leave (go), return (something lent)'
p607
sS'sk\xc3\xa4r'
p608
S'cut, chop, slash'
p609
sS'fram\xc3\xa5t'
p610
S'forward'
p611
sS'massa'
p612
S'a lot of'
p613
sS'naturkunskap'
p614
S'natural sciences'
p615
sS'groda'
p616
S'frog'
p617
sS'g\xc3\xa5r f\xc3\xb6rbi'
p618
S'bypass, go by'
p619
sS'rider'
p620
S'rider'
p621
sS'snygg'
p622
S'well, pretty, handsome'
p623
sS'reder'
p624
S'prepare, thicken'
p625
sS'sl\xc3\xa4kt'
p626
S'extended family'
p627
sS'v\xc3\xa5ning'
p628
S'floor (building stories)'
p629
sS'kam'
p630
S'comb'
p631
sS'r\xc3\xa4cka'
p632
S'do, make'
p633
sS'skruv'
p634
S'screw'
p635
sS'f\xc3\xa5gel'
p636
S'bird'
p637
sS'konstig'
p638
S'weird'
p639
sS'sedan'
p640
S'since'
p641
sS'inst\xc3\xa4mmer'
p642
S'agree, cite'
p643
sS'eftersom'
p644
S'because'
p645
sS'dammsuger'
p646
S'vacuum-clean'
p647
sS'annars'
p648
S'otherwise'
p649
sS'smaklig m\xc3\xa5ltid!'
p650
S'enjoy your meal!'
p651
sS'l\xc3\xa4gger sig'
p652
S'lie down'
p653
sS'bred'
p654
S'broad, wide'
p655
sS'ko'
p656
S'cow'
p657
sS'drottning'
p658
S'queen'
p659
sS'f\xc3\xb6rlorar'
p660
S'lose'
p661
sS'l\xc3\xa4pparna'
p662
S'lips'
p663
sS'rakt fram'
p664
S'straight ahead'
p665
sS't\xc3\xa4cka'
p666
S'cover'
p667
sS'majs'
p668
S'corn'
p669
sS'ramlar'
p670
S'fall over'
p671
sS'hylla'
p672
S'shelf'
p673
sS'tveksam'
p674
S'dubious, uncertain'
p675
sS'bakis'
p676
S'hangover'
p677
sS'golv'
p678
S'floor'
p679
sS'tror'
p680
S'believe, think, guess'
p681
sS'g\xc3\xa5 fram\xc3\xa5t'
p682
S'advance'
p683
sS'muslimsk'
p684
S'muslim'
p685
sS'badar'
p686
S'take a bath'
p687
sS's\xc3\xa4tter'
p688
S'put, set'
p689
sS'mjuk'
p690
S'soft, liquid, smooth'
p691
sS'tyv\xc3\xa4rr'
p692
S'unfortunately'
p693
sS'anl\xc3\xa4nder'
p694
S'arrive'
p695
sS'inst\xc3\xa4llning'
p696
S'attitude, approach'
p697
sS'roa sig'
p698
S'have fun'
p699
sS'axel'
p700
S'shoulder'
p701
sS'beroende'
p702
S'depending, dependence'
p703
sS'fort'
p704
S'speedy, quick'
p705
sS'kontor'
p706
S'office'
p707
sS'sl\xc3\xa4tten'
p708
S'plain (geography)'
p709
sS'lodr\xc3\xa4tt'
p710
S'vertically'
p711
sS'dyr'
p712
S'expensive'
p713
sS'h\xc3\xa4st'
p714
S'horse'
p715
sS'ben'
p716
S'leg'
p717
sS'm\xc3\xb6nster'
p718
S'style, pattern, type'
p719
sS'antingen'
p720
S'either'
p721
sS'mun'
p722
S'mouth'
p723
sS'portf\xc3\xb6lj'
p724
S'portfolio, briefcase'
p725
sS'blixt'
p726
S'lightning'
p727
sS'brukar'
p728
S'usually do'
p729
sS'underk\xc3\xa4nt'
p730
S'failed'
p731
sS'r\xc3\xa5d'
p732
S'advice'
p733
sS'dj\xc3\xa4vul'
p734
S'devil'
p735
sS'rund'
p736
S'round'
p737
sS'kniven'
p738
S'knife'
p739
sS'kulle'
p740
S'hill'
p741
sS'yta'
p742
S'area, surface'
p743
sS'giraff'
p744
S'giraffe'
p745
sS'n\xc3\xa5gon'
p746
S'someone'
p747
sS'tillf\xc3\xa4llig'
p748
S'temporarily, temporal, random, casual'
p749
sS'stickar'
p750
S'run, go, put'
p751
sS'vind'
p752
S'attic, wind'
p753
sS'bygger'
p754
S'build'
p755
sS'\xc3\xa4ndelse'
p756
S'ending'
p757
sS'inne'
p758
S'inside'
p759
sS'arg'
p760
S'angry, mad'
p761
sS'sen'
p762
S'ago, late'
p763
sS'n\xc3\xa5got'
p764
S'something'
p765
sS'trasig'
p766
S'broken'
p767
sS'arm'
p768
S'arm'
p769
sS'egentlig'
p770
S'real, net, proper, intrinsic'
p771
sS'till\xc3\xa5ten'
p772
S'permitted, allowed'
p773
sS'redan'
p774
S'already'
p775
sS'inga'
p776
S'none'
p777
sS'staty'
p778
S'statue'
p779
sS't\xc3\xa4ltar'
p780
S'camp'
p781
sS'naturligtvis'
p782
S'naturally, of course'
p783
sS'dunder'
p784
S'thunder'
p785
sS'fryst'
p786
S'frozen'
p787
sS'puder'
p788
S'powder'
p789
sS'i genomnsnitt'
p790
S'on average'
p791
sS'rita'
p792
S'draw'
p793
sS'simbass\xc3\xa4ng'
p794
S'pool'
p795
sS's\xc3\xa5 d\xc3\xa4r'
p796
S'this way, more or less'
p797
sS'ju'
p798
S'why, of course, to be sure'
p799
sS'tur'
p800
S'luck, lucky'
p801
sS'upplysning'
p802
S'information, data'
p803
sS'otrevlig'
p804
S'unpleasant'
p805
sS'kanin'
p806
S'rabbit'
p807
sS'antagligen'
p808
S'probably'
p809
sS'rostat'
p810
S'roasted'
p811
sS'sallad'
p812
S'salad'
p813
sS'milj\xc3\xb6'
p814
S'environment, surroundings'
p815
sS'r\xc3\xa4v'
p816
S'fox'
p817
sS'tv\xc3\xa4r'
p818
S'short, sharp, abrupt'
p819
sS'kex'
p820
S'biscuits'
p821
sS'servitris'
p822
S'waitress'
p823
sS'pl\xc3\xa5ster'
p824
S'band-aid'
p825
sS'mage'
p826
S'stomach'
p827
sS'alla'
p828
S'all'
p829
sS'handlar'
p830
S'trade, market, shop'
p831
sS'tycker'
p832
S'think, reckon, opine'
p833
sS'\xc3\xb6vers\xc3\xa4tt'
p834
S'translate'
p835
sS'besserwisser'
p836
S'know-it-all'
p837
sS'regelbunden'
p838
S'regular'
p839
sS'angriper'
p840
S'attack'
p841
sS'ficklampa'
p842
S'flashlight'
p843
sS'verka'
p844
S'operate, act, seem'
p845
sS'samma'
p846
S'same'
p847
sS'maskerad'
p848
S'costume party'
p849
sS'kryper'
p850
S'crawl'
p851
sS'f\xc3\xa5ngar'
p852
S'catch'
p853
sS'd\xc3\xb6d'
p854
S'dead'
p855
sS'fr\xc3\xa4sch'
p856
S'fresh'
p857
sS'matta'
p858
S'carpet'
p859
sS'bricka'
p860
S'tray'
p861
sS'linjal'
p862
S'ruler'
p863
sS'angel\xc3\xa4gen'
p864
S'pressing, important'
p865
sS'dum'
p866
S'dumb, fool'
p867
sS'g\xc3\xa5r p\xc3\xa5'
p868
S'get on'
p869
sS'filt'
p870
S'blanket'
p871
sS'bolag'
p872
S'company'
p873
sS'f\xc3\xb6rlor'
p874
S'forgive'
p875
sS'sopar'
p876
S'sweep (the floor)'
p877
sS'gissa'
p878
S'figure, guess'
p879
sS'kalas'
p880
S"children's party"
p881
sS'r\xc3\xb6star'
p882
S'vote'
p883
sS'tv\xc3\xa5 och tv\xc3\xa5'
p884
S'in pairs'
p885
sS'antar'
p886
S'suppose, presume'
p887
sS'spis'
p888
S'stove'
p889
sS'djurpark'
p890
S'zoo'
p891
sS'tiger'
p892
S'tiger'
p893
sS'l\xc3\xa4skig'
p894
S'scary'
p895
sS'jord'
p896
S'earth, dirt, ground, soil'
p897
sS'b\xc3\xa4r'
p898
S'carry, berry'
p899
sS'spik'
p900
S'nail'
p901
sS'vilse'
p902
S'lost'
p903
sS'tokig'
p904
S'crazy'
p905
sS'bild'
p906
S'image, view, figure'
p907
sS'sl\xc3\xa5 upp'
p908
S'look up, open'
p909
sS'skrattar'
p910
S'laugh'
p911
sS'st\xc3\xa4dar'
p912
S'clean'
p913
sS'g\xc3\xa5rden'
p914
S'farm, ranch, courtyard'
p915
sS'tungan'
p916
S'tongue'
p917
sS'\xc3\xa4nd\xc3\xa5'
p918
S'nevertheless, however'
p919
sS'ansikte'
p920
S'face'
p921
sS'enkel'
p922
S'single, simple'
p923
sS'minnas'
p924
S'remember, retain'
p925
sS'l\xc3\xa5ngbyxor'
p926
S'trousers'
p927
sS'feber'
p928
S'fever'
p929
sS'efterr\xc3\xa4tt'
p930
S'dessert'
p931
sS'husdjur'
p932
S'pet'
p933
sS'g\xc3\xa4rna'
p934
S'please, gladly, with pleasure'
p935
sS'lust'
p936
S'pleasure, desire, craving'
p937
sS'lycklig'
p938
S'happy'
p939
sS'slag'
p940
S'kind'
p941
sS'\xc3\xa4ndra'
p942
S'modify, change'
p943
sS'sk\xc3\xa4rpa'
p944
S'sharpen, increase'
p945
sS'tala sanning'
p946
S'tell the truth'
p947
sS'\xc3\xa4ger'
p948
S'own, have, possess'
p949
sS'paj'
p950
S'pie, broken'
p951
sS'pekar'
p952
S'point'
p953
sS'lika med'
p954
S'equal to'
p955
sS'ber\xc3\xb6md'
p956
S'famous'
p957
sS'ryggs\xc3\xa4ck'
p958
S'backpack'
p959
sS'm\xc3\xb6ssa'
p960
S'cap'
p961
sS'imponerad'
p962
S'impressed'
p963
sS'kyrkan'
p964
S'church'
p965
sS'sopa'
p966
S'broom'
p967
sS'gl\xc3\xb6dlampa'
p968
S'lightbulb'
p969
sS'tung'
p970
S'heavy'
p971
sS'kloka'
p972
S'wise'
p973
sS'r\xc3\xa4tt'
p974
S'right, correct, straight, dish'
p975
sS'm\xc3\xa5la'
p976
S'paint'
p977
sS'keps'
p978
S'cap'
p979
sS'nedan'
p980
S'below'
p981
sS'skid\xc3\xa5kare'
p982
S'skier'
p983
sS'en annan'
p984
S'another'
p985
sS'r\xc3\xb6r'
p986
S'touch, move'
p987
sS'hoppar'
p988
S'jump'
p989
sS'flygplan'
p990
S'airplane'
p991
sS'v\xc3\xa4xt'
p992
S'plant'
p993
sS'motsats'
p994
S'opposite'
p995
sS'\xc3\xb6ga'
p996
S'eye'
p997
sS'kvast'
p998
S'broom'
p999
sS'ses senare'
p1000
S'see you later'
p1001
sS'hur dags'
p1002
S'when? at what time?'
p1003
sS'skild'
p1004
S'different'
p1005
sS'allm\xc3\xa4n'
p1006
S'common, public, general'
p1007
sS'ledig'
p1008
S'free, vacant'
p1009
sS'n\xc3\xa4stan'
p1010
S'almost'
p1011
sS'byggnad'
p1012
S'building'
p1013
sS'otrolig'
p1014
S'incredible'
p1015
sS'haj'
p1016
S'shark'
p1017
sS'simhall'
p1018
S'indoor pool'
p1019
sS'kastar'
p1020
S'throw'
p1021
sS'alldeles'
p1022
S'quite, entirely'
p1023
sS'g\xc3\xa5r av'
p1024
S'get off'
p1025
sS'fl\xc3\xa4skk\xc3\xb6tt'
p1026
S'pork'
p1027
sS'f\xc3\xa5r motion'
p1028
S'exercise'
p1029
sS'eld'
p1030
S'fire'
p1031
sS'enbart'
p1032
S'entirely, solely'
p1033
sS'huvud'
p1034
S'head'
p1035
sS'pendelt\xc3\xa5g'
p1036
S'commuter train'
p1037
sS'buddistisk'
p1038
S'buddhist'
p1039
sS'utantill'
p1040
S'by heart'
p1041
sS'arbetsl\xc3\xb6s'
p1042
S'unemployd'
p1043
sS'hav'
p1044
S'sea'
p1045
sS'varuhus'
p1046
S'department store'
p1047
sS'vidare'
p1048
S'more, further'
p1049
sS'hemmafru'
p1050
S'housewife'
p1051
sS'tvillingar'
p1052
S'twins'
p1053
sS'stund'
p1054
S'moment, while'
p1055
sS'snart'
p1056
S'soon, shortly'
p1057
sS'betona'
p1058
S'stress, accent'
p1059
sS'badbyxor'
p1060
S'swimming shorts'
p1061
sS'sv\xc3\xa4nger'
p1062
S'turn'
p1063
sS'bit'
p1064
S'bit, piece'
p1065
sS'v\xc3\xa4rldsdel'
p1066
S'continent'
p1067
sS'backe'
p1068
S'hill, downslope'
p1069
sS'fattig'
p1070
S'poor'
p1071
sS'fikon'
p1072
S'fig'
p1073
sS'h\xc3\xb6ger sida'
p1074
S'right side'
p1075
sS'trumma'
p1076
S'drums'
p1077
sS'varandra'
p1078
S'one another'
p1079
sS'hittar'
p1080
S'find'
p1081
sS'godis'
p1082
S'sweets, candy'
p1083
sS'm\xc3\xb6jlig'
p1084
S'possible'
p1085
sS'mycket'
p1086
S'much'
p1087
sS'\xc3\xa4rtor'
p1088
S'peas'
p1089
sS'frisk'
p1090
S'healthy, well, good'
p1091
sS'\xc3\xb6ra'
p1092
S'ear'
p1093
sS'bort'
p1094
S'gone, out, away'
p1095
sS'omr\xc3\xa5d'
p1096
S'area'
p1097
sS'snabb'
p1098
S'fast'
p1099
sS'stiger upp'
p1100
S'get up'
p1101
sS'n\xc3\xa4rheten'
p1102
S'vicinity'
p1103
sS'stannar'
p1104
S'stop'
p1105
sS'bj\xc3\xb6rn'
p1106
S'bear'
p1107
sS'kuvert'
p1108
S'envelope'
p1109
sS'bajsat'
p1110
S'poop'
p1111
sS'f\xc3\xb6rv\xc3\xa4nta'
p1112
S'look, expect'
p1113
sS'hammare'
p1114
S'hammer'
p1115
sS'ungef\xc3\xa4r'
p1116
S'approximately, about'
p1117
sS'apa'
p1118
S'ape'
p1119
sS'skiftnyckel'
p1120
S'monkeywrench'
p1121
sS'halsduk'
p1122
S'scarf'
p1123
sS't\xc3\xa4nker'
p1124
S'think'
p1125
sS'i tid'
p1126
S'on time'
p1127
sS'skriftligt'
p1128
S'written'
p1129
sS'soppa'
p1130
S'soup'
p1131
sS'tekanna'
p1132
S'teapot'
p1133
sS'sten'
p1134
S'stone'
p1135
sS'burk'
p1136
S'jar'
p1137
sS'artig'
p1138
S'polite, corteous, mannerly'
p1139
sS'\xc3\xa5ka skidor'
p1140
S'ski'
p1141
sS'bryr sig'
p1142
S'care about'
p1143
sS'bekv\xc3\xa4m'
p1144
S'comfortable, easy, convenient'
p1145
sS'l\xc3\xa5na'
p1146
S'lend, borrow'
p1147
sS'\xc3\xb6ronsnibb'
p1148
S'ear lobe'
p1149
sS'socker'
p1150
S'sugar'
p1151
sS'badkaret'
p1152
S'bathtub'
p1153
sS'tr\xc3\xa5kig'
p1154
S'boring'
p1155
sS'tentamen'
p1156
S'examination'
p1157
sS'saker'
p1158
S'things'
p1159
sS'str\xc3\xb6mming'
p1160
S'herring'
p1161
sS'staket'
p1162
S'fence, rail'
p1163
sS'm\xc3\xb6ter'
p1164
S'meet'
p1165
sS's\xc3\xa5ngerskan'
p1166
S'singer'
p1167
sS'havregryn'
p1168
S'oatmeal'
p1169
sS'\xc3\xa5skar'
p1170
S'thunder (verb)'
p1171
sS'frim\xc3\xa4rke'
p1172
S'stamp'
p1173
sS'utbildning'
p1174
S'education'
p1175
sS'omgivet'
p1176
S'surrounded'
p1177
sS'val\xc3\xb6r'
p1178
S'value, denomination'
p1179
sS'likadana'
p1180
S'alike'
p1181
sS'h\xc3\xa5ller'
p1182
S'hold'
p1183
sS'\xc3\xa5ter'
p1184
S'back, again'
p1185
sS'h\xc3\xb6g klack'
p1186
S'high heel'
p1187
sS'stark'
p1188
S'strong'
p1189
sS'bankomat'
p1190
S'atm'
p1191
sS's\xc3\xb6ker'
p1192
S'seek, search'
p1193
sS'anst\xc3\xa4lld'
p1194
S'employee'
p1195
sS'best\xc3\xa5r'
p1196
S'consist'
p1197
sS'skridskor'
p1198
S'skates'
p1199
sS'hel'
p1200
S'whole'
p1201
sS'dricks'
p1202
S'tip'
p1203
sS'm\xc3\xa4rke'
p1204
S'brand, make'
p1205
sS'v\xc3\xa4ninna'
p1206
S'(female) friend'
p1207
sS'falur\xc3\xb6d'
p1208
S'red (particular color)'
p1209
sS'f\xc3\xb6rra'
p1210
S'previous, last, former'
p1211
sS'jaga'
p1212
S'hunt'
p1213
sS'stipendium'
p1214
S'scholarship'
p1215
sS'berg'
p1216
S'mountain'
p1217
sS'tv\xc3\xa4ttbj\xc3\xb6rn'
p1218
S'raccoon'
p1219
sS'tupp'
p1220
S'rooster'
p1221
sS'verktyg'
p1222
S'equipment, tool'
p1223
sS'anv\xc3\xa4ndbar'
p1224
S'useful'
p1225
sS'anstr\xc3\xa4nger'
p1226
S'constrain, force'
p1227
sS'i grund och botten'
p1228
S'basically'
p1229
sS'\xc3\xb6verens'
p1230
S'agree'
p1231
sS'minne'
p1232
S'mind, memory'
p1233
sS'ute'
p1234
S'outside'
p1235
sS'osthyvel'
p1236
S'cheese slicer'
p1237
sS'snigel'
p1238
S'snail'
p1239
sS'mellan'
p1240
S'between'
p1241
sS'torsk'
p1242
S'cod (fish)'
p1243
sS'kylsk\xc3\xa5p'
p1244
S'refrigerator'
p1245
sS'mj\xc3\xb6l'
p1246
S'flour'
p1247
sS'sophinken'
p1248
S'ash bin'
p1249
sS'farlig'
p1250
S'dangerous'
p1251
sS'beg\xc3\xa5vning'
p1252
S'cleverness, ability'
p1253
sS'ibland'
p1254
S'sometimes'
p1255
sS'h\xc3\xb6na'
p1256
S'hen'
p1257
sS'igen'
p1258
S'again'
p1259
sS'g\xc3\xb6ra om'
p1260
S'redo'
p1261
sS'rynka'
p1262
S'wrinkle'
p1263
sS'igenom'
p1264
S'through'
p1265
sS'sandaler'
p1266
S'sandals'
p1267
sS'padda'
p1268
S'toad'
p1269
sS'skvaller'
p1270
S'gossip, talk'
p1271
sS'v\xc3\xa4rld'
p1272
S'world'
p1273
sS'letar efter'
p1274
S'look for'
p1275
sS'bakfylla'
p1276
S'hangover'
p1277
sS'm\xc3\xa5nga'
p1278
S'many'
p1279
sS'tuff'
p1280
S'tough'
p1281
sS'avg\xc3\xa5r'
p1282
S'depart'
p1283
sS'k\xc3\xb6ksbanken'
p1284
S'top of the kitchen'
p1285
sS'styrketr\xc3\xa4ning'
p1286
S'lifts (weights)'
p1287
sS'baddr\xc3\xa4kter'
p1288
S'swimming suit'
p1289
sS'medverkan'
p1290
S'contribution, assistance'
p1291
sS'kn\xc3\xa4'
p1292
S'knee'
p1293
sS'gl\xc3\xb6m'
p1294
S'forget'
p1295
sS'snuvig'
p1296
S'congested, sneezy'
p1297
sS'prestation'
p1298
S'achievement'
p1299
sS'allts\xc3\xa5'
p1300
S'so, therefore, ergo'
p1301
sS'fakta'
p1302
S'fact'
p1303
sS'syskon'
p1304
S'siblings'
p1305
sS's\xc3\xa4llan'
p1306
S'seldom'
p1307
sS'n\xc3\xb6jd'
p1308
S'satisfied'
p1309
sS'satsmelodi'
p1310
S'intonation'
p1311
sS'mask'
p1312
S'mask, worm'
p1313
sS'verkligen'
p1314
S'really'
p1315
sS'vinner'
p1316
S'win'
p1317
sS'texter'
p1318
S'lyrics, texts'
p1319
sS'framf\xc3\xb6r'
p1320
S'in front of'
p1321
sS'prov'
p1322
S'test, exam'
p1323
sS'h\xc3\xa5l'
p1324
S'hole'
p1325
sS'flod'
p1326
S'river, stream'
p1327
s.