(dp1
S'smaklig m\xc3\xa5ltid!'
p2
S'enjoy your meal!'
p3
sS'tj\xc3\xa4nar'
p4
S'earn'
p5
sS'vid'
p6
S'at, by, at the time of'
p7
sS'lika med'
p8
S'equal to'
p9
sS'v\xc3\xa4l'
p10
S'well'
p11
sS'b\xc3\xb6rjar'
p12
S'start'
p13
sS'sedan'
p14
S'since'
p15
sS'lever'
p16
S'live'
p17
sS'eftersom'
p18
S'because'
p19
sS'trist'
p20
S'boring, sad, dull'
p21
s.