(dp1
S'r\xc3\xa4knar'
p2
S'count'
p3
sS'\xc3\xb6gonblick'
p4
S'second, moment'
p5
sS'umg\xc3\xa5s'
p6
S'socialize, keep company'
p7
sS'\xc3\xb6knen'
p8
S'desert (also \xc3\xb6ken)'
p9
sS'somnar'
p10
S'fall asleep'
p11
sS'h\xc3\xa4lsa p\xc3\xa5'
p12
S'visit'
p13
sS'kyrkan'
p14
S'church'
p15
sS'ge'
p16
S'give'
p17
sS'f\xc3\xb6rut'
p18
S'before'
p19
sS'andra'
p20
S'second, other'
p21
sS'spik'
p22
S'nail'
p23
sS'kryddstark'
p24
S'hot (spicy)'
p25
sS'reparerar'
p26
S'repair'
p27
sS'skylte'
p28
S'sign'
p29
sS'haj'
p30
S'shark'
p31
sS'd\xc3\xa5lig'
p32
S'bad'
p33
sS'urgott'
p34
S'j\xc3\xa4ttej\xc3\xa4ttegott'
p35
sS'l\xc3\xa4gg'
p36
S'add, leave (something somewhere)'
p37
sS'hinduisk'
p38
S'hindi'
p39
sS'beundra'
p40
S'admire, adore'
p41
sS'mogen'
p42
S'ripe, adult, mature'
p43
sS'f\xc3\xb6rsenat'
p44
S'late'
p45
sS'l\xc3\xb6pband'
p46
S'treadmill'
p47
sS'billig'
p48
S'cheap'
p49
sS'mosk\xc3\xa9n'
p50
S'mosque'
p51
sS'f\xc3\xa5r'
p52
S'sheep'
p53
sS'strand'
p54
S'beach'
p55
sS'k\xc3\xa4nner'
p56
S'feel'
p57
sS'sant'
p58
S'true'
p59
sS'armb\xc3\xa5gen'
p60
S'elbow'
p61
sS'utanf\xc3\xb6r'
p62
S'outside'
p63
sS'sovrum'
p64
S'room'
p65
sS'l\xc3\xa5da'
p66
S'box'
p67
sS'lever'
p68
S'live'
p69
sS'st\xc3\xa4dar'
p70
S'clean'
p71
sS'p\xc3\xa5se'
p72
S'bag'
p73
sS'kl\xc3\xa4ttrar p\xc3\xa5'
p74
S'climb'
p75
sS'djurpark'
p76
S'zoo'
p77
sS'skiva'
p78
S'slice'
p79
sS'synd'
p80
S'pity'
p81
sS'best\xc3\xa4ll'
p82
S'order'
p83
sS'f\xc3\xa4rsk'
p84
S'fresh, new'
p85
sS'skadar'
p86
S'damage'
p87
sS'm\xc3\xa5l'
p88
S'goal'
p89
sS'f\xc3\xb6rflutna'
p90
S'past'
p91
sS'bakom'
p92
S'behind'
p93
sS'kom ih\xc3\xa5g'
p94
S'remember'
p95
sS'viktig'
p96
S'important'
p97
sS'skraplott'
p98
S'scratch card'
p99
sS'k\xc3\xb6r'
p100
S'drive, choir (different sound [sh|k])'
p101
sS'tidig'
p102
S'early'
p103
sS'seglar'
p104
S'sail'
p105
sS't\xc3\xa5ng'
p106
S'pincers'
p107
sS'soldater'
p108
S'soldier'
p109
sS'sur'
p110
S'sour'
p111
sS'avsluta'
p112
S'end, close'
p113
sS'full'
p114
S'full, drunk'
p115
sS'gr\xc3\xa4s'
p116
S'grass'
p117
sS'uppt\xc3\xa4cka'
p118
S'discover'
p119
sS'ler'
p120
S'smile'
p121
sS'packar upp'
p122
S'unpack'
p123
sS's\xc3\xb6t'
p124
S'sweet'
p125
sS'servit\xc3\xb6r'
p126
S'waiter'
p127
sS'ansikte'
p128
S'face'
p129
sS'pingvin'
p130
S'penguin'
p131
sS'minst'
p132
S'least, at least'
p133
sS'v\xc3\xa5g'
p134
S'wave'
p135
sS'schack'
p136
S'chess'
p137
sS'marken'
p138
S'ground'
p139
sS'tj\xc3\xa4nar'
p140
S'earn'
p141
sS'vid'
p142
S'at, by, at the time of'
p143
sS'faktist'
p144
S'actually'
p145
sS'skr\xc3\xa4p'
p146
S'litter'
p147
sS'bro'
p148
S'bridge'
p149
sS'mening'
p150
S'sentence'
p151
sS'regnskogen'
p152
S'rainforest'
p153
sS'redo'
p154
S'ready'
p155
sS'skriv ner'
p156
S'write down'
p157
sS'fel'
p158
S'error'
p159
sS'fet'
p160
S'fat'
p161
sS'f\xc3\xb6rebild'
p162
S'example, model'
p163
sS'aff\xc3\xa4rsman'
p164
S'businessman'
p165
sS'kasse'
p166
S'bag'
p167
sS'trist'
p168
S'boring, sad, dull'
p169
sS'landet'
p170
S'country, the countryside (rural)'
p171
sS'kanske'
p172
S'maybe'
p173
sS'glas'
p174
S'glass'
p175
sS'ljus'
p176
S'light'
p177
sS'glass'
p178
S'ice cream'
p179
sS'st\xc3\xa4lle'
p180
S'place'
p181
sS'sorg'
p182
S'loss, pain'
p183
sS'bensinstation'
p184
S'gas station'
p185
sS'sp\xc3\xa4nnande'
p186
S'exciting'
p187
sS'ljud'
p188
S'sound'
p189
sS'glad'
p190
S'happy'
p191
sS'ber\xc3\xa4tta'
p192
S'tell'
p193
sS'fungerar'
p194
S'function, work'
p195
sS'fickan'
p196
S'pocket'
p197
sS'jobbig'
p198
S'hard, laborious'
p199
sS'allvarlig'
p200
S'seriously, serious, severe'
p201
sS'del'
p202
S'part'
p203
sS'skruvmejsel'
p204
S'screwdriver'
p205
sS'ny\xc3\xa5r'
p206
S'new year'
p207
sS'l\xc3\xa5ngsam'
p208
S'slow'
p209
sS'kyl'
p210
S'fridge'
p211
sS'n\xc3\xa5gra'
p212
S'some'
p213
sS'kostnad'
p214
S'cost'
p215
sS'servetten'
p216
S'napkin'
p217
sS'gaffeln'
p218
S'fork'
p219
sS'v\xc3\xa5gr\xc3\xa4tt'
p220
S'horizontally'
p221
sS'hostar'
p222
S'cough'
p223
sS'tak'
p224
S'roof, ceiling'
p225
sS'gitarr'
p226
S'gitar'
p227
sS'stig'
p228
S'path'
p229
sS'firar'
p230
S'celebrate'
p231
sS'barrtr\xc3\xa4d'
p232
S'pine, coniferous'
p233
sS'saker'
p234
S'things'
p235
sS'\xc3\xa4ven'
p236
S'even, also'
p237
sS'betydelse'
p238
S'meaning'
p239
sS'stilla'
p240
S'pacific'
p241
sS'r\xc3\xa4dd'
p242
S'scared'
p243
sS'gymnasieskolan'
p244
S'secondary school'
p245
sS'klar'
p246
S'set, clear, finished'
p247
sS'fy'
p248
S'oh!, ugh, phew'
p249
sS'f\xc3\xb6ddes'
p250
S'be born'
p251
sS'lag'
p252
S'team'
p253
sS'fart'
p254
S'speed'
p255
sS'f\xc3\xb6rs\xc3\xb6k'
p256
S'try, attempt'
p257
sS'font\xc3\xa4n'
p258
S'fountain'
p259
sS'svamp'
p260
S'mushroom'
p261
sS'nyligen'
p262
S'lately'
p263
sS'lat'
p264
S'lazy'
p265
sS'ensam'
p266
S'alone'
p267
sS'macka'
p268
S'sandwich'
p269
sS'sk\xc3\xb6nt'
p270
S'nice, beautiful'
p271
sS'vikt'
p272
S'weight'
p273
sS'skruv'
p274
S'screw'
p275
sS'sk\xc3\xa5p'
p276
S'cabinet, cupboard'
p277
sS'v\xc3\xa4xlar'
p278
S'exchange (money), gear, break'
p279
sS'br\xc3\xb6lopp'
p280
S'wedding'
p281
sS'komplicerad'
p282
S'complex, complicated'
p283
sS'gr\xc3\xa5ter'
p284
S'cry'
p285
sS'ganska'
p286
S'quite'
p287
sS'rutten'
p288
S'rotten'
p289
sS'n\xc3\xa5gonting'
p290
S'something'
p291
sS'varg'
p292
S'wolf'
p293
sS'vara'
p294
S'good, product'
p295
sS'sl\xc3\xa4ng'
p296
S'throw'
p297
sS'bidra'
p298
S'contribute'
p299
sS'paraden'
p300
S'parade'
p301
sS'v\xc3\xa4lja'
p302
S'choose'
p303
sS'pendelt\xc3\xa5g'
p304
S'commuter train'
p305
sS'skolb\xc3\xa4nk'
p306
S'school desk'
p307
sS'rika'
p308
S'rich'
p309
sS'f\xc3\xa4lt'
p310
S'field'
p311
sS'ledsen'
p312
S'sad'
p313
sS'f\xc3\xa5'
p314
S'few'
p315
sS'personlig'
p316
S'personal'
p317
sS'fin'
p318
S'good, nice'
p319
sS'hals'
p320
S'neck'
p321
sS'nog'
p322
S'enough, sufficient, probably'
p323
sS'dusch'
p324
S'shower'
p325
sS'upptagen'
p326
S'busy'
p327
sS'k\xc3\xa4llar'
p328
S'basement'
p329
sS'fiol'
p330
S'violin'
p331
sS'jorden'
p332
S'Earth'
p333
sS'skeden'
p334
S'spoon'
p335
sS'musiker'
p336
S'musician'
p337
sS'sopor'
p338
S'garbage'
p339
sS'm\xc3\xa5lning'
p340
S'painting'
p341
sS'trappan'
p342
S'stairs'
p343
sS'k\xc3\xb6rsb\xc3\xa4r'
p344
S'cherries'
p345
sS'storlek'
p346
S'size'
p347
sS'r\xc3\xa4kor'
p348
S'shrimps'
p349
sS'diskmaskin'
p350
S'dishwashing machine'
p351
sS'f\xc3\xb6delsedag'
p352
S'birthday'
p353
sS'skriv ut'
p354
S'print'
p355
sS'i st\xc3\xa4llet'
p356
S'instead'
p357
sS'l\xc3\xa4tt'
p358
S'easy, light'
p359
sS'skoj'
p360
S'fun'
p361
sS'forntid'
p362
S'antique'
p363
sS'skog'
p364
S'forest'
p365
sS'flyg'
p366
S'flight'
p367
sS'tr\xc3\xa4dg\xc3\xa5rden'
p368
S'garden'
p369
sS'n\xc3\xa4sa'
p370
S'nose'
p371
sS'aldrig'
p372
S'never'
p373
sS'styrketr\xc3\xa4ning'
p374
S'lifts (weights)'
p375
sS'bygga om'
p376
S'redo'
p377
sS'kossa'
p378
S'cow (female)'
p379
sS'tjur'
p380
S'bull'
p381
sS'n\xc3\xb6dv\xc3\xa4ndigt'
p382
S'required, necessary'
p383
sS'nobelpristagare'
p384
S'winner of the Nobel Prize'
p385
sS'rea'
p386
S'sale'
p387
sS'v\xc3\xa4l'
p388
S'well'
p389
sS'fredags'
p390
S'last Friday'
p391
sS'besv\xc3\xa4rlig'
p392
S'troublesome, difficult'
p393
sS'b\xc3\xa5da'
p394
S'both'
p395
sS'konstn\xc3\xa4r'
p396
S'artist'
p397
sS'orm'
p398
S'snake'
p399
sS'ask'
p400
S'box'
p401
sS'byta'
p402
S'switch, trade, change'
p403
sS'h\xc3\xa5ller'
p404
S'hold'
p405
sS'bredvid'
p406
S'next to'
p407
sS'skilja'
p408
S'difference, distinction'
p409
sS'kung'
p410
S'king'
p411
sS'n\xc3\xa5gonsin'
p412
S'ever'
p413
sS'v\xc3\xa4xte upp'
p414
S'grow up'
p415
sS's\xc3\xa5n'
p416
S'such (also s\xc3\xa5dan)'
p417
sS'skillnad'
p418
S'difference'
p419
sS'stark'
p420
S'strong'
p421
sS'p\xc3\xa5 nytt'
p422
S'again'
p423
sS'letar'
p424
S'look'
p425
sS'ont'
p426
S'pain'
p427
sS'nuvarande'
p428
S'present'
p429
sS'beklaga'
p430
S'regret'
p431
sS'liknar'
p432
S'seem, resemble, compar'
p433
sS'struts'
p434
S'ostrich'
p435
sS'\xc3\xa5'
p436
S'river'
p437
sS'f\xc3\xb6rbi'
p438
S'gone, past, over'
p439
sS'tom'
p440
S'empty'
p441
sS'sj\xc3\xb6'
p442
S'lake'
p443
sS'\xc3\xb6'
p444
S'island'
p445
sS'blomster'
p446
S'flower'
p447
sS'st\xc3\xa4ller'
p448
S'put, set, support'
p449
sS'shorts'
p450
S'shorts'
p451
sS'f\xc3\xb6rsiktig'
p452
S'careful'
p453
sS'framtiden'
p454
S'future'
p455
sS'nyhet'
p456
S'news'
p457
sS'sv\xc3\xa5r'
p458
S'difficult'
p459
sS'siffra'
p460
S'figure, digit'
p461
sS'ben'
p462
S'leg'
p463
sS'kniven'
p464
S'knife'
p465
sS'sk\xc3\xb6n'
p466
S'nice, beautiful'
p467
sS'b\xc3\xb6rjar'
p468
S'start'
p469
sS'stavg\xc3\xa5ng'
p470
S'nordic walk'
p471
sS'anv\xc3\xa4nda'
p472
S'use'
p473
sS'and'
p474
S'duck (\xc3\xa4nderna)'
p475
sS'packar'
p476
S'pack'
p477
sS'ram'
p478
S'frame'
p479
sS'fyrkantig'
p480
S'square-shaped'
p481
sS'statsminister'
p482
S'Prime Minister'
p483
sS'flyttar'
p484
S'move'
p485
sS'h\xc3\xa4ll'
p486
S'put, pour'
p487
sS'sax'
p488
S'scissor'
p489
sS'tidtabell'
p490
S'schedule'
p491
sS't\xc3\xa4nder'
p492
S'light (verb)'
p493
sS'falur\xc3\xb6d'
p494
S'red (particular color)'
p495
sS'l\xc3\xa5t'
p496
S'let'
p497
sS'hoppar'
p498
S'jump'
p499
sS'l\xc3\xa4mnar'
p500
S'leave (go)'
p501
sS'sk\xc3\xa4r'
p502
S'cut, chop, slash'
p503
sS'massa'
p504
S'a lot of'
p505
sS'naturkunskap'
p506
S'natural sciences'
p507
sS'groda'
p508
S'frog'
p509
sS'g\xc3\xa5r f\xc3\xb6rbi'
p510
S'bypass, go by'
p511
sS'rider'
p512
S'rider'
p513
sS'h\xc3\xa4rligt'
p514
S'lovely'
p515
sS'sl\xc3\xa4kt'
p516
S'extended family'
p517
sS'v\xc3\xa5ning'
p518
S'floor (building stories)'
p519
sS'kam'
p520
S'comb'
p521
sS'r\xc3\xa4cka'
p522
S'do, make'
p523
sS'f\xc3\xa5gel'
p524
S'bird'
p525
sS'konstig'
p526
S'weird'
p527
sS'sedan'
p528
S'since'
p529
sS'eftersom'
p530
S'because'
p531
sS'dammsuger'
p532
S'vacuum-clean'
p533
sS'annars'
p534
S'otherwise'
p535
sS'smaklig m\xc3\xa5ltid!'
p536
S'enjoy your meal!'
p537
sS'l\xc3\xa4gger sig'
p538
S'lie down'
p539
sS'bred'
p540
S'broad, wide'
p541
sS'ko'
p542
S'cow'
p543
sS'drottning'
p544
S'queen'
p545
sS'f\xc3\xb6rlorar'
p546
S'lose'
p547
sS'l\xc3\xa4pparna'
p548
S'lips'
p549
sS'rakt fram'
p550
S'straight ahead'
p551
sS't\xc3\xa4cka'
p552
S'cover'
p553
sS'majs'
p554
S'corn'
p555
sS'ramlar'
p556
S'fall over'
p557
sS'hylla'
p558
S'shelf'
p559
sS'golv'
p560
S'floor'
p561
sS'tror'
p562
S'believe, think, guess'
p563
sS'muslimsk'
p564
S'muslim'
p565
sS'badar'
p566
S'take a bath'
p567
sS's\xc3\xa4tter'
p568
S'put, set'
p569
sS'tyv\xc3\xa4rr'
p570
S'unfortunately'
p571
sS'anl\xc3\xa4nder'
p572
S'arrive'
p573
sS'dricks'
p574
S'tip'
p575
sS'beroende'
p576
S'depending, dependence'
p577
sS'kontor'
p578
S'office'
p579
sS'i grund och botten'
p580
S'basically'
p581
sS'lodr\xc3\xa4tt'
p582
S'vertically'
p583
sS'dyr'
p584
S'expensive'
p585
sS'h\xc3\xa4st'
p586
S'horse'
p587
sS'kameler'
p588
S'camel'
p589
sS'mun'
p590
S'mouth'
p591
sS'portf\xc3\xb6lj'
p592
S'portfolio, briefcase'
p593
sS'brukar'
p594
S'usually do'
p595
sS'konst'
p596
S'art'
p597
sS'r\xc3\xa5d'
p598
S'advice'
p599
sS'dj\xc3\xa4vul'
p600
S'devil'
p601
sS'rund'
p602
S'round'
p603
sS'avtal'
p604
S'agreement'
p605
sS'kulle'
p606
S'hill'
p607
sS'simbass\xc3\xa4ng'
p608
S'pool'
p609
sS'giraff'
p610
S'giraffe'
p611
sS'n\xc3\xa5gon'
p612
S'someone'
p613
sS'tillf\xc3\xa4llig'
p614
S'temporarily, temporal, random, casual'
p615
sS'vind'
p616
S'attic, wind'
p617
sS'bygger'
p618
S'build'
p619
sS'bara'
p620
S'just'
p621
sS'inne'
p622
S'inside'
p623
sS'arg'
p624
S'angry, mad'
p625
sS'sen'
p626
S'ago, late'
p627
sS'n\xc3\xa5got'
p628
S'something'
p629
sS'trasig'
p630
S'broken'
p631
sS'arm'
p632
S'arm'
p633
sS'redan'
p634
S'already'
p635
sS'inga'
p636
S'none'
p637
sS'staty'
p638
S'statue'
p639
sS't\xc3\xa4ltar'
p640
S'camp'
p641
sS'naturligtvis'
p642
S'naturally, of course'
p643
sS'fryst'
p644
S'frozen'
p645
sS'puder'
p646
S'powder'
p647
sS'rita'
p648
S'draw'
p649
sS'yta'
p650
S'area, surface'
p651
sS's\xc3\xa5 d\xc3\xa4r'
p652
S'this way, more or less'
p653
sS'ju'
p654
S'why, of course, to be sure'
p655
sS'tur'
p656
S'luck, lucky'
p657
sS'otrevlig'
p658
S'unpleasant'
p659
sS'rostat'
p660
S'roasted'
p661
sS'antagligen'
p662
S'probably'
p663
sS'mellan'
p664
S'between'
p665
sS'sallad'
p666
S'salad'
p667
sS'simhall'
p668
S'indoor pool'
p669
sS'kex'
p670
S'biscuits'
p671
sS'servitris'
p672
S'waitress'
p673
sS'pl\xc3\xa5ster'
p674
S'band-aid'
p675
sS'mage'
p676
S'stomach'
p677
sS'alla'
p678
S'all'
p679
sS'handlar'
p680
S'trade, market, shop'
p681
sS'tycker'
p682
S'think, reckon, opine'
p683
sS'\xc3\xb6vers\xc3\xa4tt'
p684
S'translate'
p685
sS'ficklampa'
p686
S'flashlight'
p687
sS'samma'
p688
S'same'
p689
sS'maskerad'
p690
S'costume party'
p691
sS'kryper'
p692
S'crawl'
p693
sS'f\xc3\xa5ngar'
p694
S'catch'
p695
sS'd\xc3\xb6d'
p696
S'dead'
p697
sS'fr\xc3\xa4sch'
p698
S'fresh'
p699
sS'matta'
p700
S'carpet'
p701
sS'linjal'
p702
S'ruler'
p703
sS'dum'
p704
S'dumb, fool'
p705
sS'g\xc3\xa5r p\xc3\xa5'
p706
S'get on'
p707
sS'f\xc3\xb6rlor'
p708
S'forgive'
p709
sS'sopar'
p710
S'sweep (the floor)'
p711
sS'gissa'
p712
S'figure, guess'
p713
sS'igen'
p714
S'again'
p715
sS'r\xc3\xb6star'
p716
S'vote'
p717
sS'tv\xc3\xa5 och tv\xc3\xa5'
p718
S'in pairs'
p719
sS'spis'
p720
S'stove'
p721
sS'snart'
p722
S'soon, shortly'
p723
sS'tiger'
p724
S'tiger'
p725
sS'l\xc3\xa4skig'
p726
S'scary'
p727
sS'b\xc3\xa4r'
p728
S'carry, berry'
p729
sS'blyertspenna'
p730
S'pencil'
p731
sS'vilse'
p732
S'lost'
p733
sS'tokig'
p734
S'crazy'
p735
sS'sl\xc3\xa5 upp'
p736
S'look up, open'
p737
sS'skrattar'
p738
S'laugh'
p739
sS'handfatet'
p740
S'washbasin'
p741
sS'segelb\xc3\xa5t'
p742
S'sailboat'
p743
sS'tungan'
p744
S'tongue'
p745
sS'ful'
p746
S'ugly'
p747
sS'feber'
p748
S'fever'
p749
sS'efterr\xc3\xa4tt'
p750
S'dessert'
p751
sS'husdjur'
p752
S'pet'
p753
sS'g\xc3\xa4rna'
p754
S'please, gladly, with pleasure'
p755
sS'lust'
p756
S'pleasure, desire, craving'
p757
sS'slag'
p758
S'kind'
p759
sS'r\xc3\xb6ra'
p760
S'touch'
p761
sS'\xc3\xa4ndra'
p762
S'modify, change'
p763
sS'tala sanning'
p764
S'tell the truth'
p765
sS'lika med'
p766
S'equal to'
p767
sS'ber\xc3\xb6md'
p768
S'famous'
p769
sS'ryggs\xc3\xa4ck'
p770
S'backpack'
p771
sS'm\xc3\xb6ssa'
p772
S'cap'
p773
sS'sopa'
p774
S'broom'
p775
sS'tung'
p776
S'heavy'
p777
sS'kloka'
p778
S'wise'
p779
sS'r\xc3\xa4tt'
p780
S'right, correct, straight, dish'
p781
sS'm\xc3\xa5la'
p782
S'paint'
p783
sS'nedan'
p784
S'below'
p785
sS'skid\xc3\xa5kare'
p786
S'skier'
p787
sS'en annan'
p788
S'another'
p789
sS'v\xc3\xa4ger'
p790
S'weigh'
p791
sS'n\xc3\xb6tk\xc3\xb6tt'
p792
S'beef'
p793
sS'flygplan'
p794
S'airplane'
p795
sS'v\xc3\xa4xt'
p796
S'plant'
p797
sS'letar efter'
p798
S'look for'
p799
sS'kvast'
p800
S'broom'
p801
sS'ses senare'
p802
S'see you later'
p803
sS'hur dags'
p804
S'when? at what time?'
p805
sS'skild'
p806
S'different'
p807
sS'ledig'
p808
S'free, vacant'
p809
sS'n\xc3\xa4stan'
p810
S'almost'
p811
sS'byggnad'
p812
S'building'
p813
sS'otrolig'
p814
S'incredible'
p815
sS'kanin'
p816
S'rabbit'
p817
sS'r\xc3\xa4v'
p818
S'fox'
p819
sS'kastar'
p820
S'throw'
p821
sS'alldeles'
p822
S'quite, entirely'
p823
sS'g\xc3\xa5r av'
p824
S'get off'
p825
sS'fl\xc3\xa4skk\xc3\xb6tt'
p826
S'pork'
p827
sS'f\xc3\xa5r motion'
p828
S'exercise'
p829
sS'eld'
p830
S'fire'
p831
sS'huvud'
p832
S'head'
p833
sS'mjuk'
p834
S'soft, liquid, smooth'
p835
sS'buddistisk'
p836
S'buddhist'
p837
sS'g\xc3\xa5rden'
p838
S'farm, ranch, courtyard'
p839
sS'arbetsl\xc3\xb6s'
p840
S'unemployd'
p841
sS'hav'
p842
S'sea'
p843
sS'm\xc3\xb6ter'
p844
S'meet'
p845
sS'vidare'
p846
S'more, further'
p847
sS'hemmafru'
p848
S'housewife'
p849
sS'tvillingar'
p850
S'twins'
p851
sS'tejp'
p852
S'tape'
p853
sS'badbyxor'
p854
S'swimming shorts'
p855
sS'bit'
p856
S'bit, piece'
p857
sS'v\xc3\xa4rldsdel'
p858
S'continent'
p859
sS'fattig'
p860
S'poor'
p861
sS'fikon'
p862
S'fig'
p863
sS'h\xc3\xb6ger sida'
p864
S'right side'
p865
sS'trumma'
p866
S'drums'
p867
sS'varandra'
p868
S'one another'
p869
sS'hittar'
p870
S'find'
p871
sS'godis'
p872
S'sweets, candy'
p873
sS'mycket'
p874
S'much'
p875
sS'\xc3\xa4rtor'
p876
S'peas'
p877
sS'frisk'
p878
S'healthy, well, good'
p879
sS'\xc3\xb6ra'
p880
S'ear'
p881
sS'bort'
p882
S'gone, out, away'
p883
sS'omr\xc3\xa5d'
p884
S'area'
p885
sS'snabb'
p886
S'fast'
p887
sS'artig'
p888
S'polite, corteous, mannerly'
p889
sS'stiger upp'
p890
S'get up'
p891
sS'n\xc3\xa4rheten'
p892
S'vicinity'
p893
sS'stannar'
p894
S'stop'
p895
sS'bj\xc3\xb6rn'
p896
S'bear'
p897
sS'kuvert'
p898
S'envelope'
p899
sS'bajsat'
p900
S'poop'
p901
sS'hammare'
p902
S'hammer'
p903
sS'ungef\xc3\xa4r'
p904
S'approximately, about'
p905
sS'apa'
p906
S'ape'
p907
sS'skiftnyckel'
p908
S'monkeywrench'
p909
sS'halsduk'
p910
S'scarf'
p911
sS't\xc3\xa4nker'
p912
S'think'
p913
sS'i tid'
p914
S'on time'
p915
sS'soppa'
p916
S'soup'
p917
sS'sten'
p918
S'stone'
p919
sS'burk'
p920
S'jar'
p921
sS'sv\xc3\xa4nger'
p922
S'turn'
p923
sS'\xc3\xa5ka skidor'
p924
S'ski'
p925
sS'l\xc3\xa5na'
p926
S'lend'
p927
sS'socker'
p928
S'sugar'
p929
sS'badkaret'
p930
S'bathtub'
p931
sS'tr\xc3\xa5kig'
p932
S'boring'
p933
sS'skridskor'
p934
S'skates'
p935
sS'str\xc3\xb6mming'
p936
S'herring'
p937
sS'staket'
p938
S'fence, rail'
p939
sS'flod'
p940
S'river, stream'
p941
sS's\xc3\xa5ngerskan'
p942
S'singer'
p943
sS'havregryn'
p944
S'oatmeal'
p945
sS'likadana'
p946
S'alike'
p947
sS'val'
p948
S'whale, choice, election'
p949
sS'\xc3\xa5ter'
p950
S'back, again'
p951
sS'fast'
p952
S'fixed, compact, inflexible'
p953
sS'bankomat'
p954
S'atm'
p955
sS's\xc3\xb6ker'
p956
S'seek, search'
p957
sS'anst\xc3\xa4lld'
p958
S'employee'
p959
sS'best\xc3\xa5r'
p960
S'consist'
p961
sS'm\xc3\xa4ter'
p962
S'measure'
p963
sS'hel'
p964
S'whole'
p965
sS'vacker'
p966
S'pretty, fair'
p967
sS'v\xc3\xa4ninna'
p968
S'(female) friend'
p969
sS'forn'
p970
S'ancient'
p971
sS'f\xc3\xb6rra'
p972
S'previous, last, former'
p973
sS'jaga'
p974
S'hunt'
p975
sS'berg'
p976
S'hill'
p977
sS'tv\xc3\xa4ttbj\xc3\xb6rn'
p978
S'raccoon'
p979
sS'tupp'
p980
S'rooster'
p981
sS'kalas'
p982
S"children's party"
p983
sS'anv\xc3\xa4ndbar'
p984
S'useful'
p985
sS'sl\xc3\xa4tten'
p986
S'plain (geography)'
p987
sS'\xc3\xb6verens'
p988
S'agree'
p989
sS'ute'
p990
S'outside'
p991
sS'snigel'
p992
S'snail'
p993
sS'torsk'
p994
S'cod (fish)'
p995
sS'kylsk\xc3\xa5p'
p996
S'refrigerator'
p997
sS'mj\xc3\xb6l'
p998
S'flour'
p999
sS'sophinken'
p1000
S'ash bin'
p1001
sS'farlig'
p1002
S'dangerous'
p1003
sS'ibland'
p1004
S'sometimes'
p1005
sS'h\xc3\xb6na'
p1006
S'hen'
p1007
sS'g\xc3\xb6ra om'
p1008
S'redo'
p1009
sS'rynka'
p1010
S'wrinkle'
p1011
sS'sandaler'
p1012
S'sandals'
p1013
sS'padda'
p1014
S'toad'
p1015
sS'v\xc3\xa4rld'
p1016
S'world'
p1017
sS'\xc3\xb6ga'
p1018
S'eye'
p1019
sS'm\xc3\xa5nga'
p1020
S'many'
p1021
sS'tuff'
p1022
S'tough'
p1023
sS'frimarken'
p1024
S'stamp'
p1025
sS'avg\xc3\xa5r'
p1026
S'depart'
p1027
sS'k\xc3\xb6ksbanken'
p1028
S'top of the kitchen'
p1029
sS'backe'
p1030
S'hill, downslope'
p1031
sS'baddr\xc3\xa4kter'
p1032
S'swimming suit'
p1033
sS'kn\xc3\xa4'
p1034
S'knee'
p1035
sS'gl\xc3\xb6m'
p1036
S'forget'
p1037
sS'syskon'
p1038
S'siblings'
p1039
sS's\xc3\xa4llan'
p1040
S'seldom'
p1041
sS'n\xc3\xb6jd'
p1042
S'satisfied'
p1043
sS'satsmelodi'
p1044
S'intonation'
p1045
sS'mask'
p1046
S'mask, worm'
p1047
sS'verkligen'
p1048
S'really'
p1049
sS'vinner'
p1050
S'win'
p1051
sS'texter'
p1052
S'lyrics, texts'
p1053
sS'framf\xc3\xb6r'
p1054
S'in front of'
p1055
sS'h\xc3\xa5l'
p1056
S'hole'
p1057
sS'kristen'
p1058
S'christian'
p1059
s.