(dp1
S'alltf\xc3\xb6r'
p2
S'too, over'
p3
sS'r\xc3\xa4knar'
p4
S'count'
p5
sS'\xc3\xb6gonblick'
p6
S'second, moment'
p7
sS'umg\xc3\xa5s'
p8
S'socialize, keep company'
p9
sS'\xc3\xb6knen'
p10
S'desert (also \xc3\xb6ken)'
p11
sS'somnar'
p12
S'fall asleep'
p13
sS'h\xc3\xa4lsa p\xc3\xa5'
p14
S'visit'
p15
sS'begriper'
p16
S'understand, catch on'
p17
sS'ge'
p18
S'give'
p19
sS'f\xc3\xb6rut'
p20
S'before'
p21
sS'andra'
p22
S'second, other'
p23
sS'blyertspenna'
p24
S'pencil'
p25
sS'kryddstark'
p26
S'hot (spicy)'
p27
sS'reparerar'
p28
S'repair'
p29
sS'inkomst'
p30
S'income'
p31
sS's\xc3\xb6ker'
p32
S'seek, search'
p33
sS'skylte'
p34
S'sign'
p35
sS'p\xc3\xa5st\xc3\xa5ende'
p36
S'claim'
p37
sS'kristen'
p38
S'christian'
p39
sS'glad'
p40
S'happy'
p41
sS'urgott'
p42
S'j\xc3\xa4ttej\xc3\xa4ttegott'
p43
sS'l\xc3\xa4gg'
p44
S'add, leave (something somewhere)'
p45
sS'hinduisk'
p46
S'hindi'
p47
sS'dela'
p48
S'share'
p49
sS'beundra'
p50
S'admire, adore'
p51
sS'mogen'
p52
S'ripe, adult, mature'
p53
sS'g\xc3\xa5rden'
p54
S'farm, ranch, courtyard'
p55
sS'f\xc3\xb6rsenat'
p56
S'late'
p57
sS'l\xc3\xb6pband'
p58
S'treadmill'
p59
sS'billig'
p60
S'cheap'
p61
sS'mosk\xc3\xa9n'
p62
S'mosque'
p63
sS'f\xc3\xa5r'
p64
S'sheep'
p65
sS'inv\xc3\xa5nare'
p66
S'local, native'
p67
sS'strand'
p68
S'beach'
p69
sS'k\xc3\xa4nner'
p70
S'feel, know (people)'
p71
sS'sant'
p72
S'true'
p73
sS'armb\xc3\xa5gen'
p74
S'elbow'
p75
sS'utanf\xc3\xb6r'
p76
S'outside'
p77
sS'sovrum'
p78
S'room'
p79
sS'l\xc3\xa5da'
p80
S'box'
p81
sS'lever'
p82
S'live'
p83
sS'handfatet'
p84
S'washbasin'
p85
sS'p\xc3\xa5se'
p86
S'bag'
p87
sS'kl\xc3\xa4ttrar p\xc3\xa5'
p88
S'climb'
p89
sS'segelb\xc3\xa5t'
p90
S'sailboat'
p91
sS'skiva'
p92
S'slice'
p93
sS'fredags'
p94
S'last Friday'
p95
sS'synd'
p96
S'pity'
p97
sS'best\xc3\xa4ll'
p98
S'order'
p99
sS'f\xc3\xa4rsk'
p100
S'fresh, new'
p101
sS'skadar'
p102
S'damage'
p103
sS'b\xc3\xb6rjar'
p104
S'start'
p105
sS'f\xc3\xb6rflutna'
p106
S'past'
p107
sS'bakom'
p108
S'behind'
p109
sS'kom ih\xc3\xa5g'
p110
S'remember'
p111
sS'viktig'
p112
S'important'
p113
sS'skraplott'
p114
S'scratch card'
p115
sS'k\xc3\xb6r'
p116
S'drive, choir (different sound [sh|k])'
p117
sS'tidig'
p118
S'early'
p119
sS'seglar'
p120
S'sail'
p121
sS'bidrag'
p122
S'grant'
p123
sS't\xc3\xa5ng'
p124
S'pincers'
p125
sS'soldater'
p126
S'soldier'
p127
sS'sur'
p128
S'sour, moody'
p129
sS'b\xc3\xb6ter'
p130
S'fine'
p131
sS'avsluta'
p132
S'end, close'
p133
sS'full'
p134
S'full, drunk'
p135
sS'gr\xc3\xa4s'
p136
S'grass'
p137
sS'vacker'
p138
S'pretty, fair'
p139
sS'uppt\xc3\xa4cka'
p140
S'discover'
p141
sS'ler'
p142
S'smile'
p143
sS'packar upp'
p144
S'unpack'
p145
sS's\xc3\xb6t'
p146
S'sweet'
p147
sS'servit\xc3\xb6r'
p148
S'waiter'
p149
sS'ful'
p150
S'ugly'
p151
sS'pingvin'
p152
S'penguin'
p153
sS'sv\xc3\xa5righeter'
p154
S'difficulty'
p155
sS'\xc3\xb6verraskning'
p156
S'surprise'
p157
sS'minst'
p158
S'least, at least'
p159
sS'v\xc3\xa5g'
p160
S'wave, scale'
p161
sS'gubben'
p162
S'old man'
p163
sS'schack'
p164
S'chess'
p165
sS'marken'
p166
S'ground'
p167
sS'tj\xc3\xa4nar'
p168
S'earn'
p169
sS'vid'
p170
S'at, by, at the time of'
p171
sS'faktist'
p172
S'actually'
p173
sS'skr\xc3\xa4p'
p174
S'litter'
p175
sS'bro'
p176
S'bridge'
p177
sS'hals'
p178
S'neck'
p179
sS'tejp'
p180
S'tape'
p181
sS'mening'
p182
S'sentence'
p183
sS'regnskogen'
p184
S'rainforest'
p185
sS'redo'
p186
S'ready'
p187
sS'skriv ner'
p188
S'write down'
p189
sS'fel'
p190
S'error, wrong'
p191
sS'fet'
p192
S'fat'
p193
sS'f\xc3\xb6rebild'
p194
S'example, model'
p195
sS'aff\xc3\xa4rsman'
p196
S'businessman'
p197
sS'kasse'
p198
S'bag'
p199
sS'trist'
p200
S'boring, sad, dull'
p201
sS'landet'
p202
S'country, the countryside (rural)'
p203
sS'kanske'
p204
S'maybe'
p205
sS'konkurrens'
p206
S'competition'
p207
sS'p\xc3\xa4rm'
p208
S'binder'
p209
sS'glas'
p210
S'glass'
p211
sS'ljus'
p212
S'light'
p213
sS'servetten'
p214
S'napkin'
p215
sS'k\xc3\xa4r'
p216
S'love, dear'
p217
sS'glass'
p218
S'ice cream'
p219
sS'st\xc3\xa4lle'
p220
S'place'
p221
sS'sorg'
p222
S'loss, pain'
p223
sS'bensinstation'
p224
S'gas station'
p225
sS'sp\xc3\xa4nnande'
p226
S'exciting'
p227
sS'ljud'
p228
S'sound'
p229
sS'd\xc3\xa5lig'
p230
S'bad'
p231
sS'ber\xc3\xa4tta'
p232
S'tell'
p233
sS'styck'
p234
S'piece, unit'
p235
sS'fungerar'
p236
S'function, work'
p237
sS'fickan'
p238
S'pocket'
p239
sS'l\xc3\xa4gg m\xc3\xa4rke'
p240
S'take notice, pay attention to'
p241
sS'jobbig'
p242
S'hard, laborious'
p243
sS'allvarlig'
p244
S'seriously, serious, severe'
p245
sS'del'
p246
S'part'
p247
sS'skruvmejsel'
p248
S'screwdriver'
p249
sS'ny\xc3\xa5r'
p250
S'new year'
p251
sS'kl\xc3\xa4r sig'
p252
S'dresses'
p253
sS'anpassar'
p254
S'adapt, get used to'
p255
sS'l\xc3\xa5ngsam'
p256
S'slow'
p257
sS'kyl'
p258
S'fridge'
p259
sS'n\xc3\xa5gra'
p260
S'some'
p261
sS'kostnad'
p262
S'cost'
p263
sS'assiett'
p264
S'plate, dish'
p265
sS'gaffeln'
p266
S'fork'
p267
sS'v\xc3\xa5gr\xc3\xa4tt'
p268
S'horizontally'
p269
sS'hostar'
p270
S'cough'
p271
sS'tak'
p272
S'roof, ceiling'
p273
sS'sats'
p274
S'preposition'
p275
sS'gitarr'
p276
S'gitar'
p277
sS'stig'
p278
S'path'
p279
sS'undantag'
p280
S'exception'
p281
sS'firar'
p282
S'celebrate'
p283
sS'barrtr\xc3\xa4d'
p284
S'pine, coniferous'
p285
sS'saker'
p286
S'things'
p287
sS'tj\xc3\xa4nst'
p288
S'post, job'
p289
sS'\xc3\xa4ven'
p290
S'even, also'
p291
sS'betydelse'
p292
S'meaning'
p293
sS'stilla'
p294
S'pacific'
p295
sS'r\xc3\xa4dd'
p296
S'scared'
p297
sS'gymnasieskolan'
p298
S'secondary school'
p299
sS'g\xc3\xa5 \xc3\xb6ver'
p300
S'cross'
p301
sS'pigg'
p302
S'alert, alive, sharp'
p303
sS'fy'
p304
S'oh!, ugh, phew'
p305
sS'f\xc3\xb6ddes'
p306
S'be born'
p307
sS'lag'
p308
S'team'
p309
sS'fart'
p310
S'speed'
p311
sS'f\xc3\xb6rs\xc3\xb6k'
p312
S'try, attempt'
p313
sS'font\xc3\xa4n'
p314
S'fountain'
p315
sS'fr\xc3\xa4mst'
p316
S'mainly, chiefly'
p317
sS'svamp'
p318
S'mushroom'
p319
sS'nyligen'
p320
S'lately'
p321
sS'lat'
p322
S'lazy'
p323
sS'ensam'
p324
S'alone'
p325
sS'macka'
p326
S'sandwich'
p327
sS'flyttar'
p328
S'move'
p329
sS'vikt'
p330
S'weight'
p331
sS'h\xc3\xa4rlig'
p332
S'lovely, divine, magnificient'
p333
sS'sk\xc3\xa5p'
p334
S'cabinet, cupboard'
p335
sS'v\xc3\xa4xlar'
p336
S'exchange (money), gear, break'
p337
sS'br\xc3\xb6lopp'
p338
S'wedding'
p339
sS'komplicerad'
p340
S'complex, complicated'
p341
sS'gr\xc3\xa5ter'
p342
S'cry'
p343
sS'ganska'
p344
S'quite'
p345
sS'rutten'
p346
S'rotten'
p347
sS'n\xc3\xa5gonting'
p348
S'something'
p349
sS'varg'
p350
S'wolf'
p351
sS'l\xc3\xa4nge'
p352
S'for a long time'
p353
sS'vara'
p354
S'good, product'
p355
sS'sl\xc3\xa4ng'
p356
S'throw'
p357
sS'bidra'
p358
S'contribute'
p359
sS'paraden'
p360
S'parade'
p361
sS'v\xc3\xa4lja'
p362
S'choose'
p363
sS'skolb\xc3\xa4nk'
p364
S'school desk'
p365
sS'rika'
p366
S'rich'
p367
sS'beroende'
p368
S'depending, dependence'
p369
sS'f\xc3\xa4lt'
p370
S'field'
p371
sS'ledsen'
p372
S'sad'
p373
sS'f\xc3\xa5'
p374
S'few'
p375
sS'personlig'
p376
S'personal'
p377
sS'fin'
p378
S'good, nice'
p379
sS'kr\xc3\xa4ver'
p380
S'claim (verb), need'
p381
sS'vanligtvis'
p382
S'usually, often'
p383
sS'nog'
p384
S'enough, sufficient, probably'
p385
sS'dusch'
p386
S'shower'
p387
sS'upptagen'
p388
S'busy'
p389
sS'k\xc3\xa4llar'
p390
S'basement'
p391
sS'fiol'
p392
S'violin'
p393
sS'jorden'
p394
S'Earth'
p395
sS'orsak'
p396
S'source, reason'
p397
sS'omkring'
p398
S'around'
p399
sS'skeden'
p400
S'spoon'
p401
sS'musiker'
p402
S'musician'
p403
sS'utvecklar'
p404
S'develop, produce'
p405
sS'sopor'
p406
S'garbage'
p407
sS'm\xc3\xa5lning'
p408
S'painting'
p409
sS'trappan'
p410
S'stairs'
p411
sS'k\xc3\xb6rsb\xc3\xa4r'
p412
S'cherries'
p413
sS'storlek'
p414
S'size'
p415
sS'r\xc3\xa4kor'
p416
S'shrimps'
p417
sS'\xc3\xa4mne'
p418
S'material, stuff, issue, subject'
p419
sS'diskmaskin'
p420
S'dishwashing machine'
p421
sS'bildning'
p422
S'culture, learning, refinement'
p423
sS'f\xc3\xb6delsedag'
p424
S'birthday'
p425
sS'skriv ut'
p426
S'print'
p427
sS'i st\xc3\xa4llet'
p428
S'instead'
p429
sS'l\xc3\xa4tt'
p430
S'easy, light'
p431
sS'skoj'
p432
S'fun'
p433
sS'forntid'
p434
S'ancient times'
p435
sS'skog'
p436
S'forest'
p437
sS'konst'
p438
S'art'
p439
sS'flyg'
p440
S'flight'
p441
sS'tr\xc3\xa4dg\xc3\xa5rden'
p442
S'garden'
p443
sS'hellre'
p444
S'rather'
p445
sS'n\xc3\xa4sa'
p446
S'nose'
p447
sS'tenta'
p448
S'exam'
p449
sS'aldrig'
p450
S'never'
p451
sS'klar'
p452
S'set, clear, finished'
p453
sS'endast'
p454
S'alone, merely'
p455
sS'bygga om'
p456
S'redo'
p457
sS'kossa'
p458
S'cow (female)'
p459
sS'kjol'
p460
S'skirt'
p461
sS'avg\xc3\xb6r'
p462
S'determine, decide, resolve'
p463
sS'tjur'
p464
S'bull'
p465
sS'n\xc3\xb6dv\xc3\xa4ndigt'
p466
S'required, necessary'
p467
sS'nobelpristagare'
p468
S'winner of the Nobel Prize'
p469
sS'rea'
p470
S'sale'
p471
sS'v\xc3\xa4l'
p472
S'well'
p473
sS'obekant'
p474
S'strange, unfamiliar'
p475
sS'besv\xc3\xa4rlig'
p476
S'troublesome, difficult'
p477
sS'b\xc3\xa5da'
p478
S'both'
p479
sS'konstn\xc3\xa4r'
p480
S'artist'
p481
sS'orm'
p482
S'snake'
p483
sS'seri\xc3\xb6s'
p484
S'serious'
p485
sS'ask'
p486
S'box'
p487
sS'byta'
p488
S'switch, trade, change'
p489
sS'v\xc3\xa4rde'
p490
S'worth'
p491
sS'val'
p492
S'whale, choice, election'
p493
sS'bredvid'
p494
S'next to'
p495
sS'skilja'
p496
S'difference, distinction'
p497
sS'kung'
p498
S'king'
p499
sS'n\xc3\xa5gonsin'
p500
S'ever'
p501
sS'v\xc3\xa4xte upp'
p502
S'grow up'
p503
sS'egentligen'
p504
S'actually'
p505
sS's\xc3\xa5n'
p506
S'such (also s\xc3\xa5dan)'
p507
sS'skillnad'
p508
S'difference'
p509
sS'skifta'
p510
S'change, shift'
p511
sS'fast'
p512
S'fixed, compact, inflexible'
p513
sS'p\xc3\xa5 nytt'
p514
S'again'
p515
sS'letar'
p516
S'look'
p517
sS'ont'
p518
S'pain'
p519
sS'v\xc3\xa4rdefulla'
p520
S'valuable'
p521
sS'nuvarande'
p522
S'present'
p523
sS'beklaga'
p524
S'regret'
p525
sS'liknar'
p526
S'seem, resemble, compare'
p527
sS'struts'
p528
S'ostrich'
p529
sS'\xc3\xa5'
p530
S'river'
p531
sS'f\xc3\xb6rbi'
p532
S'gone, past, over'
p533
sS'tom'
p534
S'empty'
p535
sS'sj\xc3\xb6'
p536
S'lake'
p537
sS'\xc3\xb6'
p538
S'island'
p539
sS'schema'
p540
S'schedule'
p541
sS'blomster'
p542
S'flower'
p543
sS'st\xc3\xa4ller'
p544
S'put, set, support'
p545
sS'shorts'
p546
S'shorts'
p547
sS'f\xc3\xb6rm\xc3\xa5ga'
p548
S'ability, capacity, faculty, talent'
p549
sS'f\xc3\xb6rsiktig'
p550
S'careful'
p551
sS'framtiden'
p552
S'future'
p553
sS'nyhet'
p554
S'news'
p555
sS'klarg\xc3\xb6rer'
p556
S'clear, disambiguate'
p557
sS'sv\xc3\xa5r'
p558
S'difficult'
p559
sS'siffra'
p560
S'figure, digit'
p561
sS'bara'
p562
S'just'
p563
sS'kind'
p564
S'cheek'
p565
sS'kameler'
p566
S'camel'
p567
sS'avtal'
p568
S'agreement'
p569
sS'sk\xc3\xb6n'
p570
S'nice, beautiful'
p571
sS'm\xc3\xa5l'
p572
S'goal'
p573
sS'stavg\xc3\xa5ng'
p574
S'nordic walk'
p575
sS'anv\xc3\xa4nda'
p576
S'use'
p577
sS'and'
p578
S'duck (\xc3\xa4nderna)'
p579
sS'packar'
p580
S'pack'
p581
sS'visning'
p582
S'show, demonstration, exhibition'
p583
sS'b\xc3\xb6rda'
p584
S'weight, load, cargo'
p585
sS'ram'
p586
S'frame'
p587
sS'fyrkantig'
p588
S'square-shaped'
p589
sS'statsminister'
p590
S'Prime Minister'
p591
sS'v\xc3\xa4ger'
p592
S'weigh'
p593
sS'h\xc3\xa4ll'
p594
S'put, pour'
p595
sS'sax'
p596
S'scissor'
p597
sS'tidtabell'
p598
S'schedule'
p599
sS'tv\xc3\xa4rtom'
p600
S'vice-versa'
p601
sS'anger'
p602
S'specify, mention, assign'
p603
sS't\xc3\xa4nder'
p604
S'light (verb)'
p605
sS'forn'
p606
S'ancient'
p607
sS'l\xc3\xa5t'
p608
S'let'
p609
sS'n\xc3\xb6tk\xc3\xb6tt'
p610
S'beef'
p611
sS'l\xc3\xa4mnar'
p612
S'leave (go), return (something lent)'
p613
sS'sk\xc3\xa4r'
p614
S'cut, chop, slash'
p615
sS'fram\xc3\xa5t'
p616
S'forward'
p617
sS'massa'
p618
S'a lot of'
p619
sS'naturkunskap'
p620
S'natural sciences'
p621
sS'groda'
p622
S'frog'
p623
sS'g\xc3\xa5r f\xc3\xb6rbi'
p624
S'bypass, go by'
p625
sS'rider'
p626
S'rider'
p627
sS'snygg'
p628
S'well, pretty, handsome'
p629
sS'reder'
p630
S'prepare, thicken'
p631
sS'sl\xc3\xa4kt'
p632
S'extended family'
p633
sS'v\xc3\xa5ning'
p634
S'floor (building stories)'
p635
sS'kam'
p636
S'comb'
p637
sS'r\xc3\xa4cka'
p638
S'do, make'
p639
sS'skruv'
p640
S'screw'
p641
sS'f\xc3\xa5gel'
p642
S'bird'
p643
sS'konstig'
p644
S'weird'
p645
sS'sedan'
p646
S'since'
p647
sS'inst\xc3\xa4mmer'
p648
S'agree, cite'
p649
sS'eftersom'
p650
S'because'
p651
sS'dammsuger'
p652
S'vacuum-clean'
p653
sS'annars'
p654
S'otherwise'
p655
sS'smaklig m\xc3\xa5ltid!'
p656
S'enjoy your meal!'
p657
sS'l\xc3\xa4gger sig'
p658
S'lie down'
p659
sS'bred'
p660
S'broad, wide'
p661
sS'ko'
p662
S'cow'
p663
sS'drottning'
p664
S'queen'
p665
sS'f\xc3\xb6rlorar'
p666
S'lose'
p667
sS'l\xc3\xa4pparna'
p668
S'lips'
p669
sS'rakt fram'
p670
S'straight ahead'
p671
sS't\xc3\xa4cka'
p672
S'cover'
p673
sS'majs'
p674
S'corn'
p675
sS'ramlar'
p676
S'fall over'
p677
sS'hylla'
p678
S'shelf'
p679
sS'tveksam'
p680
S'dubious, uncertain'
p681
sS'bakis'
p682
S'hangover'
p683
sS'golv'
p684
S'floor'
p685
sS'tror'
p686
S'believe, think, guess'
p687
sS'g\xc3\xa5 fram\xc3\xa5t'
p688
S'advance'
p689
sS'muslimsk'
p690
S'muslim'
p691
sS'badar'
p692
S'take a bath'
p693
sS's\xc3\xa4tter'
p694
S'put, set'
p695
sS'mjuk'
p696
S'soft, liquid, smooth'
p697
sS'tyv\xc3\xa4rr'
p698
S'unfortunately'
p699
sS'anl\xc3\xa4nder'
p700
S'arrive'
p701
sS'inst\xc3\xa4llning'
p702
S'attitude, approach'
p703
sS'roa sig'
p704
S'have fun'
p705
sS'axel'
p706
S'shoulder'
p707
sS's\xc3\xa4ker'
p708
S'certain, sure, clear'
p709
sS'kontor'
p710
S'office'
p711
sS'sl\xc3\xa4tten'
p712
S'plain (geography)'
p713
sS'lodr\xc3\xa4tt'
p714
S'vertically'
p715
sS'dyr'
p716
S'expensive'
p717
sS'h\xc3\xa4st'
p718
S'horse'
p719
sS'ben'
p720
S'leg'
p721
sS'm\xc3\xb6nster'
p722
S'style, pattern, type'
p723
sS'antingen'
p724
S'either'
p725
sS'mun'
p726
S'mouth'
p727
sS'portf\xc3\xb6lj'
p728
S'portfolio, briefcase'
p729
sS'blixt'
p730
S'lightning'
p731
sS'brukar'
p732
S'usually do'
p733
sS'underk\xc3\xa4nt'
p734
S'failed'
p735
sS'r\xc3\xa5d'
p736
S'advice'
p737
sS'dj\xc3\xa4vul'
p738
S'devil'
p739
sS'rund'
p740
S'round'
p741
sS'kniven'
p742
S'knife'
p743
sS'kulle'
p744
S'hill'
p745
sS'yta'
p746
S'area, surface'
p747
sS'giraff'
p748
S'giraffe'
p749
sS'n\xc3\xa5gon'
p750
S'someone'
p751
sS'tillf\xc3\xa4llig'
p752
S'temporarily, temporal, random, casual'
p753
sS'stickar'
p754
S'run, go, put'
p755
sS'vind'
p756
S'attic, wind'
p757
sS'bygger'
p758
S'build'
p759
sS'\xc3\xa4ndelse'
p760
S'ending'
p761
sS'inne'
p762
S'inside'
p763
sS'arg'
p764
S'angry, mad'
p765
sS'sen'
p766
S'ago, late'
p767
sS'n\xc3\xa5got'
p768
S'something'
p769
sS'trasig'
p770
S'broken'
p771
sS'arm'
p772
S'arm'
p773
sS'egentlig'
p774
S'real, net, proper, intrinsic'
p775
sS'till\xc3\xa5ten'
p776
S'permitted, allowed'
p777
sS'redan'
p778
S'already'
p779
sS'inga'
p780
S'none'
p781
sS'staty'
p782
S'statue'
p783
sS't\xc3\xa4ltar'
p784
S'camp'
p785
sS'naturligtvis'
p786
S'naturally, of course'
p787
sS'dunder'
p788
S'thunder'
p789
sS'fryst'
p790
S'frozen'
p791
sS'puder'
p792
S'powder'
p793
sS'i genomnsnitt'
p794
S'on average'
p795
sS'rita'
p796
S'draw'
p797
sS'simbass\xc3\xa4ng'
p798
S'pool'
p799
sS's\xc3\xa5 d\xc3\xa4r'
p800
S'this way, more or less'
p801
sS'ju'
p802
S'why, of course, to be sure'
p803
sS'tur'
p804
S'luck, lucky'
p805
sS'upplysning'
p806
S'information, data'
p807
sS'otrevlig'
p808
S'unpleasant'
p809
sS'kanin'
p810
S'rabbit'
p811
sS'antagligen'
p812
S'probably'
p813
sS'rostat'
p814
S'roasted'
p815
sS'sallad'
p816
S'salad'
p817
sS'milj\xc3\xb6'
p818
S'environment, surroundings'
p819
sS'r\xc3\xa4v'
p820
S'fox'
p821
sS'tv\xc3\xa4r'
p822
S'short, sharp, abrupt'
p823
sS'kex'
p824
S'biscuits'
p825
sS'servitris'
p826
S'waitress'
p827
sS'pl\xc3\xa5ster'
p828
S'band-aid'
p829
sS'mage'
p830
S'stomach'
p831
sS'alla'
p832
S'all'
p833
sS'handlar'
p834
S'trade, market, shop'
p835
sS'tycker'
p836
S'think, reckon, opine'
p837
sS'\xc3\xb6vers\xc3\xa4tt'
p838
S'translate'
p839
sS'besserwisser'
p840
S'know-it-all'
p841
sS'regelbunden'
p842
S'regular'
p843
sS'angriper'
p844
S'attack'
p845
sS'ficklampa'
p846
S'flashlight'
p847
sS'verka'
p848
S'operate, act, seem'
p849
sS'samma'
p850
S'same'
p851
sS'maskerad'
p852
S'costume party'
p853
sS'kryper'
p854
S'crawl'
p855
sS'f\xc3\xa5ngar'
p856
S'catch'
p857
sS'd\xc3\xb6d'
p858
S'dead'
p859
sS'fr\xc3\xa4sch'
p860
S'fresh'
p861
sS'matta'
p862
S'carpet'
p863
sS'bricka'
p864
S'tray'
p865
sS'linjal'
p866
S'ruler'
p867
sS'angel\xc3\xa4gen'
p868
S'pressing, important'
p869
sS'dum'
p870
S'dumb, fool'
p871
sS'g\xc3\xa5r p\xc3\xa5'
p872
S'get on'
p873
sS'filt'
p874
S'blanket'
p875
sS'bolag'
p876
S'company'
p877
sS'f\xc3\xb6rlor'
p878
S'forgive'
p879
sS'sopar'
p880
S'sweep (the floor)'
p881
sS'gissa'
p882
S'figure, guess'
p883
sS'kalas'
p884
S"children's party"
p885
sS'r\xc3\xb6star'
p886
S'vote'
p887
sS'tv\xc3\xa5 och tv\xc3\xa5'
p888
S'in pairs'
p889
sS'antar'
p890
S'suppose, presume'
p891
sS'spis'
p892
S'stove'
p893
sS'stackare'
p894
S'victim, beggar, dog'
p895
sS'tiger'
p896
S'tiger'
p897
sS'l\xc3\xa4skig'
p898
S'scary'
p899
sS'jord'
p900
S'earth, dirt, ground, soil'
p901
sS'b\xc3\xa4r'
p902
S'carry, berry'
p903
sS'spik'
p904
S'nail'
p905
sS'vilse'
p906
S'lost'
p907
sS'tokig'
p908
S'crazy'
p909
sS'bild'
p910
S'image, view, figure'
p911
sS'sl\xc3\xa5 upp'
p912
S'look up, open'
p913
sS'skrattar'
p914
S'laugh'
p915
sS'st\xc3\xa4dar'
p916
S'clean'
p917
sS'djurpark'
p918
S'zoo'
p919
sS'tungan'
p920
S'tongue'
p921
sS'\xc3\xa4nd\xc3\xa5'
p922
S'nevertheless, however'
p923
sS'ansikte'
p924
S'face'
p925
sS'enkel'
p926
S'single, simple'
p927
sS'minnas'
p928
S'remember, retain'
p929
sS'l\xc3\xa5ngbyxor'
p930
S'trousers'
p931
sS'feber'
p932
S'fever'
p933
sS'efterr\xc3\xa4tt'
p934
S'dessert'
p935
sS'husdjur'
p936
S'pet'
p937
sS'g\xc3\xa4rna'
p938
S'please, gladly, with pleasure'
p939
sS'lust'
p940
S'pleasure, desire, craving'
p941
sS'lycklig'
p942
S'happy'
p943
sS'slag'
p944
S'kind'
p945
sS'\xc3\xa4ndra'
p946
S'modify, change'
p947
sS'sk\xc3\xa4rpa'
p948
S'sharpen, increase'
p949
sS'tala sanning'
p950
S'tell the truth'
p951
sS'\xc3\xa4ger'
p952
S'own, have, possess'
p953
sS'paj'
p954
S'pie, broken'
p955
sS'pekar'
p956
S'point'
p957
sS'lika med'
p958
S'equal to'
p959
sS'ber\xc3\xb6md'
p960
S'famous'
p961
sS'ryggs\xc3\xa4ck'
p962
S'backpack'
p963
sS'm\xc3\xb6ssa'
p964
S'cap'
p965
sS'imponerad'
p966
S'impressed'
p967
sS'kyrkan'
p968
S'church'
p969
sS'sopa'
p970
S'broom'
p971
sS'gl\xc3\xb6dlampa'
p972
S'lightbulb'
p973
sS'tung'
p974
S'heavy'
p975
sS'kloka'
p976
S'wise'
p977
sS'r\xc3\xa4tt'
p978
S'right, correct, straight, dish'
p979
sS'm\xc3\xa5la'
p980
S'paint'
p981
sS'keps'
p982
S'cap'
p983
sS'nedan'
p984
S'below'
p985
sS'skid\xc3\xa5kare'
p986
S'skier'
p987
sS'en annan'
p988
S'another'
p989
sS'r\xc3\xb6r'
p990
S'touch, move'
p991
sS'hoppar'
p992
S'jump'
p993
sS'flygplan'
p994
S'airplane'
p995
sS'v\xc3\xa4xt'
p996
S'plant'
p997
sS'motsats'
p998
S'opposite'
p999
sS'\xc3\xb6ga'
p1000
S'eye'
p1001
sS'kvast'
p1002
S'broom'
p1003
sS'ses senare'
p1004
S'see you later'
p1005
sS'hur dags'
p1006
S'when? at what time?'
p1007
sS'skild'
p1008
S'different'
p1009
sS'allm\xc3\xa4n'
p1010
S'common, public, general'
p1011
sS'ledig'
p1012
S'free, vacant'
p1013
sS'n\xc3\xa4stan'
p1014
S'almost'
p1015
sS'byggnad'
p1016
S'building'
p1017
sS'otrolig'
p1018
S'incredible'
p1019
sS'haj'
p1020
S'shark'
p1021
sS'simhall'
p1022
S'indoor pool'
p1023
sS'kastar'
p1024
S'throw'
p1025
sS'alldeles'
p1026
S'quite, entirely'
p1027
sS'g\xc3\xa5r av'
p1028
S'get off'
p1029
sS'fl\xc3\xa4skk\xc3\xb6tt'
p1030
S'pork'
p1031
sS'f\xc3\xa5r motion'
p1032
S'exercise'
p1033
sS'eld'
p1034
S'fire'
p1035
sS'enbart'
p1036
S'entirely, solely'
p1037
sS'huvud'
p1038
S'head'
p1039
sS'pendelt\xc3\xa5g'
p1040
S'commuter train'
p1041
sS'buddistisk'
p1042
S'buddhist'
p1043
sS'utantill'
p1044
S'by heart'
p1045
sS'arbetsl\xc3\xb6s'
p1046
S'unemployd'
p1047
sS'hav'
p1048
S'sea'
p1049
sS'varuhus'
p1050
S'department store'
p1051
sS'vidare'
p1052
S'more, further'
p1053
sS'hemmafru'
p1054
S'housewife'
p1055
sS'tvillingar'
p1056
S'twins'
p1057
sS'stund'
p1058
S'moment, while'
p1059
sS'snart'
p1060
S'soon, shortly'
p1061
sS'betona'
p1062
S'stress, accent'
p1063
sS'badbyxor'
p1064
S'swimming shorts'
p1065
sS'sv\xc3\xa4nger'
p1066
S'turn'
p1067
sS'bit'
p1068
S'bit, piece'
p1069
sS'v\xc3\xa4rldsdel'
p1070
S'continent'
p1071
sS'backe'
p1072
S'hill, downslope'
p1073
sS'fattig'
p1074
S'poor'
p1075
sS'fikon'
p1076
S'fig'
p1077
sS'h\xc3\xb6ger sida'
p1078
S'right side'
p1079
sS'trumma'
p1080
S'drums'
p1081
sS'varandra'
p1082
S'one another'
p1083
sS'hittar'
p1084
S'find'
p1085
sS'godis'
p1086
S'sweets, candy'
p1087
sS'm\xc3\xb6jlig'
p1088
S'possible'
p1089
sS'mycket'
p1090
S'much'
p1091
sS'\xc3\xa4rtor'
p1092
S'peas'
p1093
sS'frisk'
p1094
S'healthy, well, good'
p1095
sS'\xc3\xb6ra'
p1096
S'ear'
p1097
sS'bort'
p1098
S'gone, out, away'
p1099
sS'omr\xc3\xa5d'
p1100
S'area'
p1101
sS'snabb'
p1102
S'fast'
p1103
sS'stiger upp'
p1104
S'get up'
p1105
sS'n\xc3\xa4rheten'
p1106
S'vicinity'
p1107
sS'stannar'
p1108
S'stop'
p1109
sS'bj\xc3\xb6rn'
p1110
S'bear'
p1111
sS'kuvert'
p1112
S'envelope'
p1113
sS'bajsat'
p1114
S'poop'
p1115
sS'f\xc3\xb6rv\xc3\xa4nta'
p1116
S'look, expect'
p1117
sS'hammare'
p1118
S'hammer'
p1119
sS'ungef\xc3\xa4r'
p1120
S'approximately, about'
p1121
sS'apa'
p1122
S'ape'
p1123
sS'skiftnyckel'
p1124
S'monkeywrench'
p1125
sS'halsduk'
p1126
S'scarf'
p1127
sS't\xc3\xa4nker'
p1128
S'think'
p1129
sS'i tid'
p1130
S'on time'
p1131
sS'skriftligt'
p1132
S'written'
p1133
sS'soppa'
p1134
S'soup'
p1135
sS'tekanna'
p1136
S'teapot'
p1137
sS'sten'
p1138
S'stone'
p1139
sS'burk'
p1140
S'jar'
p1141
sS'artig'
p1142
S'polite, corteous, mannerly'
p1143
sS'\xc3\xa5ka skidor'
p1144
S'ski'
p1145
sS'bryr sig'
p1146
S'care about'
p1147
sS'bekv\xc3\xa4m'
p1148
S'comfortable, easy, convenient'
p1149
sS'l\xc3\xa5na'
p1150
S'lend, borrow'
p1151
sS'\xc3\xb6ronsnibb'
p1152
S'ear lobe'
p1153
sS'socker'
p1154
S'sugar'
p1155
sS'badkaret'
p1156
S'bathtub'
p1157
sS'tr\xc3\xa5kig'
p1158
S'boring'
p1159
sS'tentamen'
p1160
S'examination'
p1161
sS'skridskor'
p1162
S'skates'
p1163
sS'str\xc3\xb6mming'
p1164
S'herring'
p1165
sS'staket'
p1166
S'fence, rail'
p1167
sS'm\xc3\xb6ter'
p1168
S'meet'
p1169
sS's\xc3\xa5ngerskan'
p1170
S'singer'
p1171
sS'havregryn'
p1172
S'oatmeal'
p1173
sS'\xc3\xa5skar'
p1174
S'thunder (verb)'
p1175
sS'frim\xc3\xa4rke'
p1176
S'stamp'
p1177
sS'utbildning'
p1178
S'education'
p1179
sS'omgivet'
p1180
S'surrounded'
p1181
sS'val\xc3\xb6r'
p1182
S'value, denomination'
p1183
sS'likadana'
p1184
S'alike'
p1185
sS'h\xc3\xa5ller'
p1186
S'hold'
p1187
sS'\xc3\xa5ter'
p1188
S'back, again'
p1189
sS'h\xc3\xb6g klack'
p1190
S'high heel'
p1191
sS'stark'
p1192
S'strong'
p1193
sS'bankomat'
p1194
S'atm'
p1195
sS'anstr\xc3\xa4nger'
p1196
S'constrain, force'
p1197
sS'anst\xc3\xa4lld'
p1198
S'employee'
p1199
sS'best\xc3\xa5r'
p1200
S'consist'
p1201
sS'm\xc3\xa4ter'
p1202
S'measure'
p1203
sS'hel'
p1204
S'whole'
p1205
sS'dricks'
p1206
S'tip'
p1207
sS'm\xc3\xa4rke'
p1208
S'brand, make'
p1209
sS'v\xc3\xa4ninna'
p1210
S'(female) friend'
p1211
sS'falur\xc3\xb6d'
p1212
S'red (particular color)'
p1213
sS'f\xc3\xb6rra'
p1214
S'previous, last, former'
p1215
sS'jaga'
p1216
S'hunt'
p1217
sS'stipendium'
p1218
S'scholarship'
p1219
sS'berg'
p1220
S'mountain'
p1221
sS'tv\xc3\xa4ttbj\xc3\xb6rn'
p1222
S'raccoon'
p1223
sS'tupp'
p1224
S'rooster'
p1225
sS'verktyg'
p1226
S'equipment, tool'
p1227
sS'anv\xc3\xa4ndbar'
p1228
S'useful'
p1229
sS'fort'
p1230
S'speedy, quick'
p1231
sS'i grund och botten'
p1232
S'basically'
p1233
sS'\xc3\xb6verens'
p1234
S'agree'
p1235
sS'minne'
p1236
S'mind, memory'
p1237
sS'ute'
p1238
S'outside'
p1239
sS'osthyvel'
p1240
S'cheese slicer'
p1241
sS'snigel'
p1242
S'snail'
p1243
sS'mellan'
p1244
S'between'
p1245
sS'torsk'
p1246
S'cod (fish)'
p1247
sS'kylsk\xc3\xa5p'
p1248
S'refrigerator'
p1249
sS'mj\xc3\xb6l'
p1250
S'flour'
p1251
sS'sophinken'
p1252
S'ash bin'
p1253
sS'farlig'
p1254
S'dangerous'
p1255
sS'beg\xc3\xa5vning'
p1256
S'cleverness, ability'
p1257
sS'ibland'
p1258
S'sometimes'
p1259
sS'h\xc3\xb6na'
p1260
S'hen'
p1261
sS'igen'
p1262
S'again'
p1263
sS'g\xc3\xb6ra om'
p1264
S'redo'
p1265
sS'rynka'
p1266
S'wrinkle'
p1267
sS'igenom'
p1268
S'through'
p1269
sS'sandaler'
p1270
S'sandals'
p1271
sS'padda'
p1272
S'toad'
p1273
sS'skvaller'
p1274
S'gossip, talk'
p1275
sS'v\xc3\xa4rld'
p1276
S'world'
p1277
sS'letar efter'
p1278
S'look for'
p1279
sS'bakfylla'
p1280
S'hangover'
p1281
sS'm\xc3\xa5nga'
p1282
S'many'
p1283
sS'tuff'
p1284
S'tough'
p1285
sS'avg\xc3\xa5r'
p1286
S'depart'
p1287
sS'k\xc3\xb6ksbanken'
p1288
S'top of the kitchen'
p1289
sS'styrketr\xc3\xa4ning'
p1290
S'lifts (weights)'
p1291
sS'baddr\xc3\xa4kter'
p1292
S'swimming suit'
p1293
sS'medverkan'
p1294
S'contribution, assistance'
p1295
sS'kn\xc3\xa4'
p1296
S'knee'
p1297
sS'gl\xc3\xb6m'
p1298
S'forget'
p1299
sS'snuvig'
p1300
S'congested, sneezy'
p1301
sS'prestation'
p1302
S'achievement'
p1303
sS'allts\xc3\xa5'
p1304
S'so, therefore, ergo'
p1305
sS'fakta'
p1306
S'fact'
p1307
sS'syskon'
p1308
S'siblings'
p1309
sS's\xc3\xa4llan'
p1310
S'seldom'
p1311
sS'n\xc3\xb6jd'
p1312
S'satisfied'
p1313
sS'satsmelodi'
p1314
S'intonation'
p1315
sS'mask'
p1316
S'mask, worm'
p1317
sS'verkligen'
p1318
S'really'
p1319
sS'vinner'
p1320
S'win'
p1321
sS'texter'
p1322
S'lyrics, texts'
p1323
sS'framf\xc3\xb6r'
p1324
S'in front of'
p1325
sS'prov'
p1326
S'test, exam'
p1327
sS'h\xc3\xa5l'
p1328
S'hole'
p1329
sS'flod'
p1330
S'river, stream'
p1331
s.